ccopy_reg
_reconstructor
p0
(cnltk.tag.brill
BrillTagger
p1
c__builtin__
object
p2
Ntp3
Rp4
(dp5
S'_initial_tagger'
p6
g0
(cnltk.tag.sequential
NgramTagger
p7
g2
Ntp8
Rp9
(dp10
S'_taggers'
p11
(lp12
g9
ag0
(g7
g2
Ntp13
Rp14
(dp15
g11
(lp16
g14
ag0
(cnltk.tag.sequential
TrigramTagger
p17
g2
Ntp18
Rp19
(dp20
g11
(lp21
g19
ag0
(cnltk.tag.sequential
BigramTagger
p22
g2
Ntp23
Rp24
(dp25
g11
(lp26
g24
ag0
(cnltk.tag.sequential
UnigramTagger
p27
g2
Ntp28
Rp29
(dp30
g11
(lp31
g29
asS'_n'
p32
I1
sS'_context_to_tag'
p33
(dp34
S'and'
p35
S'O'
p36
sS'right'
p37
S'ORMTP-ORMRP'
p38
sS'left'
p39
S'ORMTP-ORMRP'
p40
sS'be'
p41
S'OBTP'
p42
sS'wall'
p43
S'IRMRP'
p44
sS'is'
p45
S'OBTP'
p46
sS'move'
p47
S'IRMRP'
p48
sS'back'
p49
S'OBTP-FURTP'
p50
sS'walk'
p51
S'ORMTP'
p52
sS'nightstand'
p53
S'OBTP-FURTP'
p54
sS'are'
p55
S'FURTP-IRMRP'
p56
sS'directly'
p57
S'OBTP-FURTP-IRMRP'
p58
sS'in'
p59
S'OBTP-ORMTP'
p60
sS'go'
p61
g44
sS'table'
p62
S'OBTP-FURTP'
p63
sS'find'
p64
S'OBTP'
p65
sS'halfway'
p66
S'IRMRP'
p67
sS'hit'
p68
g44
sS'again'
p69
S'IRMRP'
p70
sS"'ll"
p71
g65
sS'monitor'
p72
g65
sS'turn'
p73
S'ORMTP-ORMRP'
p74
sS'with'
p75
S'FURTP-FURRP'
p76
sS'top'
p77
S'OBTP-FURTP'
p78
sS'there'
p79
g46
sS'mug'
p80
g46
sS'couch'
p81
S'OBTP-FURTP-FURRP'
p82
sS'to'
p83
S'OBTP-FURTP-IRMRP'
p84
sS'behind'
p85
S'OBTP-FURTP-FURRP'
p86
sS'take'
p87
S'ORMTP-ORMRP'
p88
sS'forward'
p89
S'ORMTP'
p90
sS'you'
p91
g65
sS'was'
p92
S'OBTP'
p93
sS'until'
p94
g44
sS'fork'
p95
g42
sS'then'
p96
g36
sS'll'
p97
S'OBTP'
p98
sS'door'
p99
S'ORMTP'
p100
sS'bed'
p101
S'OBTP-FURTP-FURRP'
p102
sS'living'
p103
S'OBTP-ORMTP'
p104
sS'far'
p105
S'OBTP-FURTP-IRMRP'
p106
sS'laptop'
p107
S'OBTP'
p108
sS'a'
p109
S'ORMTP-ORMRP'
p110
sS'statue'
p111
S'OBTP'
p112
sS'front'
p113
S'OBTP-FURTP-FURRP'
p114
sS'end'
p115
S'OBTP-FURTP-IRMRP'
p116
sS'come'
p117
S'ORMTP'
p118
sS'by'
p119
S'OBTP-FURTP-FURRP'
p120
sS'case'
p121
S'OBTP'
p122
sS'on'
p123
S'OBTP-FURTP'
p124
sS'about'
p125
g67
sS'your'
p126
S'OBTP-FURTP-IRMRP'
p127
sS'room'
p128
S'OBTP-ORMTP'
p129
sS'ahead'
p130
S'OBTP-FURTP-IRMRP'
p131
sS'chairs'
p132
S'OBTP-FURTP-FURRP'
p133
sS'of'
p134
S'OBTP-FURTP-FURRP'
p135
sS'straight'
p136
S'ORMTP'
p137
sS'against'
p138
S'FURTP-IRMRP'
p139
sS'will'
p140
g42
sS'into'
p141
g118
sS'bedroom'
p142
S'OBTP-ORMTP'
p143
sS'enter'
p144
S'ORMTP'
p145
sS'through'
p146
g100
sS'the'
p147
g42
sS'glasses'
p148
g122
sS'side'
p149
S'OBTP-FURTP-IRMRP'
p150
sS'at'
p151
S'FURTP-IRMRP'
p152
ssbasg32
I2
sg33
(dp153
((g78
tp154
g134
tp155
S'OBTP-FURTP'
p156
s((S'OBTP'
p157
tp158
S'the'
p159
tp160
g65
s((S'OBTP-ORMTP-ORMRP'
p161
tp162
S'at'
p163
tp164
S'OBTP-IRMRP'
p165
s((S'IRMRP'
p166
tp167
S'left'
p168
tp169
g166
s((S'IRMRP'
p170
tp171
S'are'
p172
tp173
g170
s((S'OBTP-IRMRP'
p174
tp175
g149
tp176
S'OBTP-IRMRP'
p177
s((g76
tp178
S'the'
p179
tp180
S'FURTP-FURRP'
p181
s((S'OBTP-FURTP-FURRP'
p182
tp183
S'at'
p184
tp185
S'OBTP-FURTP-IRMRP'
p186
s((S'ORMTP-ORMRP'
p187
tp188
S'on'
p189
tp190
S'ORMTP-ORMRP'
p191
s((S'OBTP-FURTP-FURRP'
p192
tp193
S'right'
p194
tp195
S'OBTP-FURTP-FURRP'
p196
s((S'OBTP-ORMTP'
p197
tp198
S'to'
p199
tp200
S'OBTP-ORMTP-ORMRP'
p201
s((g157
tp202
S'of'
p203
tp204
g157
s((S'OBTP-ORMTP-ORMRP'
p205
tp206
S'ahead'
p207
tp208
S'OBTP-IRMRP'
p209
s((S'OBTP-IRMRP'
p210
tp211
g115
tp212
S'OBTP-IRMRP'
p213
s((g36
tp214
g51
tp215
g67
s((g36
tp216
S'turn'
p217
tp218
S'IRMRP'
p219
s((g145
tp220
S'on'
p221
tp222
S'ORMTP-ORMRP'
p223
s((S'OBTP-IRMRP'
p224
tp225
S'on'
p226
tp227
S'OBTP-FURTP'
p228
s((S'OBTP-FURTP'
p229
tp230
S'in'
p231
tp232
S'OBTP-FURTP-FURRP'
p233
s((g127
tp234
S'left'
p235
tp236
S'OBTP-FURTP-IRMRP'
p237
s((S'OBTP-IRMRP'
p238
tp239
S'left'
p240
tp241
S'OBTP-IRMRP'
p242
s((S'OBTP-IRMRP'
p243
tp244
S'room'
p245
tp246
S'OBTP-IRMRP'
p247
s((S'OBTP-IRMRP'
p248
tp249
S'to'
p250
tp251
S'OBTP-IRMRP'
p252
s((tS'take'
p253
tp254
S'ORMTP-ORMRP'
p255
s((S'IRMRP'
p256
tp257
S'go'
p258
tp259
g44
s((S'FURTP-IRMRP'
p260
tp261
S'you'
p262
tp263
S'FURTP-IRMRP'
p264
s((g84
tp265
S'the'
p266
tp267
S'OBTP-FURTP-IRMRP'
p268
s((g118
tp269
S'the'
p270
tp271
g145
s((S'OBTP-ORMTP-ORMRP'
p272
tp273
S'left'
p274
tp275
S'OBTP-ORMTP-ORMRP'
p276
s((S'FURTP-IRMRP'
p277
tp278
S'straight'
p279
tp280
S'FURTP-IRMRP'
p281
s((S'FURTP'
p282
tp283
S'table'
p284
tp285
g282
s((S'OBTP-FURTP-IRMRP'
p286
tp287
S'in'
p288
tp289
S'OBTP-FURTP-FURRP'
p290
s((tg61
tp291
g90
s((S'OBTP-ORMTP-ORMRP'
p292
tp293
g57
tp294
S'OBTP-IRMRP'
p295
s((g181
tp296
g132
tp297
S'FURTP-FURRP'
p298
s((S'ORMTP'
p299
tp300
g109
tp301
g299
s((g36
tp302
S'left'
p303
tp304
g70
s((S'OBTP-IRMRP'
p305
tp306
S'wall'
p307
tp308
S'OBTP-IRMRP'
p309
s((g135
tp310
S'the'
p311
tp312
S'OBTP-FURTP-FURRP'
p313
s((g60
tp314
S'the'
p315
tp316
S'OBTP-ORMTP'
p317
s((S'FURTP-IRMRP'
p318
tp319
S'forward'
p320
tp321
S'FURTP-IRMRP'
p322
s((S'OBTP-ORMTP-ORMRP'
p323
tp324
S'in'
p325
tp326
S'OBTP-IRMRP'
p327
s((g90
tp328
g35
tp329
g90
s((S'OBTP-FURTP-IRMRP'
p330
tp331
S'wall'
p332
tp333
S'OBTP-FURTP-IRMRP'
p334
s((S'OBTP-FURTP'
p335
tp336
S'with'
p337
tp338
S'OBTP-FURTP-FURRP'
p339
s((S'FURTP'
p340
tp341
S'to'
p342
tp343
g340
s((S'OBTP-FURTP-FURRP'
p344
tp345
S'left'
p346
tp347
S'OBTP-FURTP-FURRP'
p348
s((S'OBTP-FURTP'
p349
tp350
S'to'
p351
tp352
S'OBTP-FURTP-FURRP'
p353
s((g124
tp354
S'the'
p355
tp356
S'OBTP-FURTP'
p357
s((S'IRMRP'
p358
tp359
S'back'
p360
tp361
g358
s((g268
tp362
S'right'
p363
tp364
S'OBTP-FURTP-IRMRP'
p365
s((S'FURTP-IRMRP'
p366
tp367
S'wall'
p368
tp369
S'FURTP-IRMRP'
p370
s((S'OBTP-IRMRP'
p371
tp372
g105
tp373
S'OBTP-IRMRP'
p374
s((g170
tp375
S'at'
p376
tp377
g170
s((g219
tp378
S'right'
p379
tp380
g219
s((g157
tp381
S'top'
p382
tp383
g157
s((g44
tp384
g91
tp385
g44
s((g42
tp386
g123
tp387
g124
s((S'OBTP-IRMRP'
p388
tp389
S'back'
p390
tp391
S'OBTP-IRMRP'
p392
s((g67
tp393
S'straight'
p394
tp395
g67
s((S'OBTP-FURTP-FURRP'
p396
tp397
S'table'
p398
tp399
S'OBTP-FURTP-FURRP'
p400
s((S'ORMTP-ORMRP'
p401
tp402
g128
tp403
g187
s((S'OBTP-IRMRP'
p404
tp405
S'of'
p406
tp407
S'OBTP-IRMRP'
p408
s((S'OBTP-IRMRP'
p409
tp410
S'halfway'
p411
tp412
S'OBTP-IRMRP'
p413
s((g152
tp414
S'the'
p415
tp416
g282
s((g145
tp417
S'room'
p418
tp419
g145
s((S'OBTP'
p420
tp421
g138
tp422
S'OBTP-IRMRP'
p423
s((S'OBTP-ORMTP'
p424
tp425
S'right'
p426
tp427
S'OBTP-ORMTP'
p428
s((g322
tp429
S'to'
p430
tp431
S'FURTP-IRMRP'
p432
s((g340
tp433
S'forward'
p434
tp435
g340
s((g340
tp436
S'the'
p437
tp438
g340
s((g36
tp439
S'go'
p440
tp441
g170
s((S'ORMTP'
p442
tp443
S'then'
p444
tp445
g442
s((S'IRMTP'
p446
tp447
S'forward'
p448
tp449
g446
s((S'OBTP-IRMRP'
p450
tp451
S'the'
p452
tp453
S'OBTP-IRMRP'
p454
s((S'OBTP'
p455
tp456
S'ahead'
p457
tp458
g248
s((g299
tp459
S'right'
p460
tp461
g299
s((g191
tp462
S'the'
p463
tp464
S'ORMTP-ORMRP'
p465
s((g252
tp466
S'your'
p467
tp468
g238
s((g454
tp469
S'right'
p470
tp471
S'OBTP-IRMRP'
p472
s((S'OBTP-ORMTP-ORMRP'
p473
tp474
S'the'
p475
tp476
S'OBTP-ORMTP-ORMRP'
p477
s((g477
tp478
S'right'
p479
tp480
g292
s((S'FURTP-IRMRP'
p481
tp482
g49
tp483
S'FURTP-IRMRP'
p484
s((S'OBTP-FURTP'
p485
tp486
S'at'
p487
tp488
S'OBTP-FURTP-IRMRP'
p489
s((g67
tp490
S'turn'
p491
tp492
g166
s((g276
tp493
S'on'
p494
tp495
S'OBTP-FURTP'
p496
s((g129
tp497
S'on'
p498
tp499
g473
s((S'OBTP-FURTP'
p500
tp501
S'against'
p502
tp503
S'OBTP-FURTP-IRMRP'
p504
s((S'ORMTP-ORMRP'
p505
tp506
S'go'
p507
tp508
S'IRMRP'
p509
s((S'OBTP-ORMTP-ORMRP'
p510
tp511
S'about'
p512
tp513
g409
s((g67
tp514
g59
tp515
g67
s((g44
tp516
S'forward'
p517
tp518
g44
s((g413
tp519
S'in'
p520
tp521
g224
s((g281
tp522
S'until'
p523
tp524
g260
s((g44
tp525
S'the'
p526
tp527
g44
s((S'ORMTP-ORMRP'
p528
tp529
S'and'
p530
tp531
g36
ssbag29
asg32
I3
sg33
(dp532
((g272
g276
tp533
g494
tp534
g496
s((S'ORMTP-ORMRP'
p535
g36
tp536
S'walk'
p537
tp538
g67
s((S'OBTP-ORMTP'
p539
S'OBTP-ORMTP'
p540
tp541
S'to'
p542
tp543
g201
s((g357
g63
tp544
g83
tp545
g353
s((g413
g224
tp546
g226
tp547
g228
s((g118
g118
tp548
g270
tp549
S'ORMTP'
p550
s((g256
g256
tp551
g258
tp552
g44
s((g157
g157
tp553
g159
tp554
g65
s((S'IRMRP'
p555
g555
tp556
S'you'
p557
tp558
g44
s((g42
g42
tp559
g123
tp560
g124
s((S'ORMTP-ORMRP'
p561
g528
tp562
g530
tp563
g36
s((g528
S'ORMTP-ORMRP'
p564
tp565
S'the'
p566
tp567
g112
s((g424
g428
tp568
S'on'
p569
tp570
g473
s((g282
S'FURTP-IRMRP'
p571
tp572
S'the'
p573
tp574
g481
s((S'ORMTP-ORMRP'
p575
g36
tp576
g440
tp577
g170
s((tg253
tp578
g255
s((S'ORMTP-ORMRP'
p579
g505
tp580
g507
tp581
g509
s((S'OBTP-ORMTP-ORMRP'
p582
S'OBTP-ORMTP-ORMRP'
p583
tp584
S'at'
p585
tp586
g165
s((g52
g52
tp587
S'and'
p588
tp589
g90
s((S'ORMTP'
p590
g36
tp591
S'walk'
p592
tp593
S'FURTP-IRMRP'
p594
ssbag24
ag29
asg32
I4
sg33
(dp595
((S'ORMTP'
p596
g561
g528
tp597
g530
tp598
g36
s((S'ORMTP'
p599
g599
g36
tp600
S'walk'
p601
tp602
g594
s((g401
g187
g191
tp603
g463
tp604
g112
s((g409
g413
g224
tp605
g226
tp606
g228
s((g555
g555
g555
tp607
g557
tp608
g44
s((g118
g118
tp609
g270
tp610
g550
s((S'OBTP-ORMTP'
p611
g424
g428
tp612
g569
tp613
g473
s((S'ORMTP-ORMRP'
p614
g575
g36
tp615
g440
tp616
g170
s((g52
g52
g52
tp617
g588
tp618
g36
s((g124
g357
g63
tp619
g83
tp620
g84
s((S'ORMTP-ORMRP'
p621
g535
g36
tp622
g537
tp623
g67
s((g42
g42
g42
tp624
g123
tp625
g124
s((S'ORMTP-ORMRP'
p626
g579
g505
tp627
g507
tp628
g509
s((g157
g157
g157
tp629
g159
tp630
g65
s((S'OBTP-ORMTP-ORMRP'
p631
g582
g583
tp632
g585
tp633
g165
s((g36
g256
g256
tp634
g258
tp635
g318
s((S'OBTP-ORMTP'
p636
g539
g540
tp637
g542
tp638
g201
s((S'OBTP-ORMTP-ORMRP'
p639
g272
g276
tp640
g494
tp641
g496
s((tg253
tp642
g255
ssbag19
ag24
ag29
asg32
I5
sg33
(dp643
((S'ORMTP'
p644
g621
g535
g36
tp645
g537
tp646
g67
s((g42
g42
g42
g42
tp647
g123
tp648
g124
s((S'OBTP-ORMTP-ORMRP'
p649
S'OBTP-FURTP'
p650
S'OBTP-FURTP'
p651
S'OBTP-FURTP'
p652
tp653
S'to'
p654
tp655
S'OBTP-FURTP-FURRP'
p656
s((S'ORMTP'
p657
g614
g575
g36
tp658
g440
tp659
g170
s((S'OBTP-ORMTP'
p660
g631
g582
g583
tp661
g585
tp662
g165
s((g157
g157
g157
g157
tp663
g159
tp664
S'OBTP-FURTP'
p665
s((g118
g118
tp666
g270
tp667
g550
s((S'OBTP-ORMTP'
p668
g639
g272
g276
tp669
g494
tp670
g496
s((S'ORMTP'
p671
g626
g579
g505
tp672
g507
tp673
g509
s((g36
g36
g219
g219
tp674
S'go'
p675
tp676
g318
s((S'OBTP-FURTP'
p677
S'OBTP-FURTP'
p678
S'OBTP-FURTP'
p679
g349
tp680
g351
tp681
g353
s((g555
g555
g555
g555
tp682
g557
tp683
g44
s((g540
g611
g424
g428
tp684
g569
tp685
S'OBTP-ORMTP-ORMRP'
p686
s((g118
g401
g187
g191
tp687
g463
tp688
g112
s((S'OBTP'
p689
S'OBTP-FURTP'
p690
S'OBTP-FURTP'
p691
S'OBTP-FURTP'
p692
tp693
S'to'
p694
tp695
g84
s((S'OBTP-ORMTP'
p696
g636
g539
g540
tp697
g542
tp698
S'OBTP-ORMTP-ORMRP'
p699
s((g599
g599
g599
g36
tp700
g601
tp701
g594
s((g596
g596
g561
g528
tp702
g530
tp703
g36
s((g510
g409
g413
g224
tp704
g226
tp705
S'OBTP-IRMRP'
p706
s((tg253
tp707
g255
ssbsS'_training_stats'
p708
(dp709
S'min_score'
p710
I4
sS'finalacc'
p711
F0.9716703458425313
sS'min_acc'
p712
NsS'tokencount'
p713
I2718
sS'initialacc'
p714
F0.9304635761589404
sS'templatecount'
p715
I24
sS'sequencecount'
p716
I134
sS'initialerrors'
p717
I189
sS'finalerrors'
p718
I77
sS'rulescores'
p719
(lp720
I20
aI12
aI10
aI8
aI6
aI6
aI6
aI6
aI6
aI6
aI9
aI5
aI4
aI4
aI4
assS'_rules'
p721
(g0
(cnltk.tbl.rule
Rule
p722
g2
Ntp723
Rp724
(dp725
S'replacement_tag'
p726
S'OBTP-IRMRP'
p727
sS'_Rule__hash'
p728
I6891047761872070885
sS'_Rule__repr'
p729
S"Rule('029', 'OBTP-FURTP', 'OBTP-IRMRP', [(Pos([1, 2]),'ORMTP-ORMRP')])"
p730
sS'templateid'
p731
S'029'
p732
sS'original_tag'
p733
g357
sS'_conditions'
p734
((g0
(cnltk.tag.brill
Pos
p735
g2
Ntp736
Rp737
(dp738
S'positions'
p739
(I1
I2
tp740
sS'PROPERTY_NAME'
p741
S'Pos'
p742
sbg40
tp743
tp744
sbg0
(g722
g2
Ntp745
Rp746
(dp747
g726
S'OBTP-FURTP-FURRP'
p748
sg728
I-2655651008321126920
sg729
S"Rule('040', 'OBTP-FURTP-IRMRP', 'OBTP-FURTP-FURRP', [(Word([1, 2]),'of')])"
p749
sg731
S'040'
p750
sg733
g365
sg734
((g0
(cnltk.tag.brill
Word
p751
g2
Ntp752
Rp753
(dp754
g739
(I1
I2
tp755
sg741
S'Word'
p756
sbS'of'
p757
tp758
tp759
sbg0
(g722
g2
Ntp760
Rp761
(dp762
g726
S'OBTP-IRMRP'
p763
sg728
I2612968743111155356
sg729
S"Rule('024', 'ORMTP-ORMRP', 'OBTP-IRMRP', [(Pos([-1]),'OBTP-IRMRP')])"
p764
sg731
S'024'
p765
sg733
g38
sg734
((g0
(g735
g2
Ntp766
Rp767
(dp768
g739
(I-1
tp769
sg741
g742
sbg727
tp770
tp771
sbg0
(g722
g2
Ntp772
Rp773
(dp774
g726
S'OBTP-FURTP-IRMRP'
p775
sg728
I8525291035483792331
sg729
S"Rule('040', 'OBTP-FURTP-FURRP', 'OBTP-FURTP-IRMRP', [(Word([1, 2]),'far')])"
p776
sg731
g750
sg733
g313
sg734
((g753
S'far'
p777
tp778
tp779
sbg0
(g722
g2
Ntp780
Rp781
(dp782
g726
g157
sg728
I-308156510291370948
sg729
S"Rule('025', 'IRMRP', 'OBTP', [(Pos([1]),'OBTP')])"
p783
sg731
S'025'
p784
sg733
g44
sg734
((g0
(g735
g2
Ntp785
Rp786
(dp787
g739
(I1
tp788
sg741
g742
sbg65
tp789
tp790
sbg0
(g722
g2
Ntp791
Rp792
(dp793
g726
S'FURTP-IRMRP'
p794
sg728
I-4119106530315795426
sg729
S"Rule('029', 'OBTP-FURTP-IRMRP', 'FURTP-IRMRP', [(Pos([1, 2]),'OBTP-FURTP')])"
p795
sg731
g732
sg733
g268
sg734
((g737
g50
tp796
tp797
sbg0
(g722
g2
Ntp798
Rp799
(dp800
g726
S'FURTP-IRMRP'
p801
sg728
I6274420696384504104
sg729
S"Rule('031', 'IRMRP', 'FURTP-IRMRP', [(Pos([1, 2, 3]),'OBTP-FURTP')])"
p802
sg731
S'031'
p803
sg733
g170
sg734
((g0
(g735
g2
Ntp804
Rp805
(dp806
g739
(I1
I2
I3
tp807
sg741
g742
sbg63
tp808
tp809
sbg0
(g722
g2
Ntp810
Rp811
(dp812
g726
S'OBTP-FURTP-IRMRP'
p813
sg728
I-5717758794423018752
sg729
S"Rule('031', 'OBTP-FURTP-FURRP', 'OBTP-FURTP-IRMRP', [(Pos([1, 2, 3]),'OBTP-ORMTP')])"
p814
sg731
g803
sg733
g196
sg734
((g805
g60
tp815
tp816
sbg0
(g722
g2
Ntp817
Rp818
(dp819
g726
S'OBTP-FURTP-FURRP'
p820
sg728
I-8399689622235629116
sg729
S"Rule('032', 'OBTP-FURTP-IRMRP', 'OBTP-FURTP-FURRP', [(Pos([-1]),'OBTP-FURTP'), (Pos([1]),'OBTP-FURTP-FURRP')])"
p821
sg731
S'032'
p822
sg733
g84
sg734
((g0
(g735
g2
Ntp823
Rp824
(dp825
g739
(I-1
tp826
sg741
g742
sbg54
tp827
(g0
(g735
g2
Ntp828
Rp829
(dp830
g739
(I1
tp831
sg741
g742
sbg748
tp832
tp833
sbg0
(g722
g2
Ntp834
Rp835
(dp836
g726
S'OBTP-IRMRP'
p837
sg728
I-7306461642627234759
sg729
S"Rule('040', 'OBTP-FURTP', 'OBTP-IRMRP', [(Word([1, 2]),'far')])"
p838
sg731
g750
sg733
g357
sg734
((g753
S'far'
p839
tp840
tp841
sbg0
(g722
g2
Ntp842
Rp843
(dp844
g726
g213
sg728
I3277015333397869816
sg729
S"Rule('030', 'OBTP-FURTP-IRMRP', 'OBTP-IRMRP', [(Pos([-3, -2, -1]),'OBTP-IRMRP')])"
p845
sg731
S'030'
p846
sg733
g116
sg734
((g0
(g735
g2
Ntp847
Rp848
(dp849
g739
(I-3
I-2
I-1
tp850
sg741
g742
sbg837
tp851
tp852
sbg0
(g722
g2
Ntp853
Rp854
(dp855
g726
S'OBTP-FURTP-IRMRP'
p856
sg728
I-664540337677127469
sg729
S"Rule('040', 'OBTP-FURTP-FURRP', 'OBTP-FURTP-IRMRP', [(Word([1, 2]),'behind')])"
p857
sg731
g750
sg733
g196
sg734
((g753
S'behind'
p858
tp859
tp860
sbg0
(g722
g2
Ntp861
Rp862
(dp863
g726
S'OBTP-FURTP'
p864
sg728
I1336177444847347246
sg729
S"Rule('024', 'OBTP', 'OBTP-FURTP', [(Pos([-1]),'ORMTP-ORMRP')])"
p865
sg731
g765
sg733
g112
sg734
((g767
g191
tp866
tp867
sbg0
(g722
g2
Ntp868
Rp869
(dp870
g726
S'OBTP-FURTP'
p871
sg728
I-1150175395989076341
sg729
S"Rule('024', 'ORMTP-ORMRP', 'OBTP-FURTP', [(Pos([-1]),'OBTP-IRMRP')])"
p872
sg731
g765
sg733
g191
sg734
((g767
g763
tp873
tp874
sbg0
(g722
g2
Ntp875
Rp876
(dp877
g726
S'OBTP-FURTP'
p878
sg728
I-5428461092305661688
sg729
S"Rule('040', 'OBTP-IRMRP', 'OBTP-FURTP', [(Word([1, 2]),'table')])"
p879
sg731
g750
sg733
g392
sg734
((g753
S'table'
p880
tp881
tp882
sbtp883
sb.