ccopy_reg
_reconstructor
p0
(cnltk.tag.brill
BrillTagger
p1
c__builtin__
object
p2
Ntp3
Rp4
(dp5
S'_initial_tagger'
p6
g0
(cnltk.tag.sequential
NgramTagger
p7
g2
Ntp8
Rp9
(dp10
S'_taggers'
p11
(lp12
g9
ag0
(g7
g2
Ntp13
Rp14
(dp15
g11
(lp16
g14
ag0
(cnltk.tag.sequential
TrigramTagger
p17
g2
Ntp18
Rp19
(dp20
g11
(lp21
g19
ag0
(cnltk.tag.sequential
BigramTagger
p22
g2
Ntp23
Rp24
(dp25
g11
(lp26
g24
ag0
(cnltk.tag.sequential
UnigramTagger
p27
g2
Ntp28
Rp29
(dp30
g11
(lp31
g29
asS'_n'
p32
I1
sS'_context_to_tag'
p33
(dp34
S'and'
p35
S'O'
p36
sS'right'
p37
S'OBTP-FURTP-IRMRP'
p38
sS'office'
p39
S'ORMTP'
p40
sS'then'
p41
g36
sS'wall'
p42
S'IRMRP'
p43
sS'is'
p44
S'OBTP'
p45
sS'bedroom'
p46
S'ORMTP'
p47
sS'back'
p48
S'OBTP-FURTP'
p49
sS'walk'
p50
S'IRMRP'
p51
sS'against'
p52
S'OBTP-FURTP-IRMRP'
p53
sS'nightstand'
p54
S'OBTP-FURTP'
p55
sS'are'
p56
S'FURTP-IRMRP'
p57
sS'directly'
p58
S'OBTP-FURTP-IRMRP'
p59
sS'in'
p60
S'OBTP-ORMTP'
p61
sS'go'
p62
S'ORMTP'
p63
sS'table'
p64
S'OBTP-FURTP'
p65
sS'chair'
p66
S'OBTP-FURTP-FURRP'
p67
sS'find'
p68
S'OBTP'
p69
sS'halfway'
p70
S'IRMRP'
p71
sS'living'
p72
S'ORMTP'
p73
sS'end'
p74
S'OBTP-IRMRP'
p75
sS'monitor'
p76
S'OBTP'
p77
sS'top'
p78
S'OBTP-FURTP'
p79
sS'there'
p80
S'OBTP'
p81
sS'mug'
p82
S'OBTP'
p83
sS'couch'
p84
S'OBTP-FURTP-FURRP'
p85
sS'to'
p86
g63
sS'behind'
p87
S'OBTP-FURTP-FURRP'
p88
sS'forward'
p89
S'IRMRP'
p90
sS'you'
p91
g69
sS'meeting'
p92
S'ORMTP'
p93
sS'laptop'
p94
S'OBTP'
p95
sS'side'
p96
S'OBTP-FURTP-IRMRP'
p97
sS'fork'
p98
g45
sS'be'
p99
S'OBTP'
p100
sS'move'
p101
S'IRMRP'
p102
sS'hit'
p103
g43
sS'again'
p104
S'IRMRP'
p105
sS'far'
p106
S'OBTP-FURTP-IRMRP'
p107
sS'left'
p108
S'IRMRP'
p109
sS'studio'
p110
g63
sS'statue'
p111
S'OBTP'
p112
sS'front'
p113
S'OBTP-FURTP-FURRP'
p114
sS'with'
p115
S'OBTP-FURTP-FURRP'
p116
sS'by'
p117
S'OBTP-FURTP-FURRP'
p118
sS'case'
p119
S'OBTP'
p120
sS'on'
p121
S'OBTP-FURTP'
p122
sS'about'
p123
g71
sS'your'
p124
S'OBTP-FURTP-IRMRP'
p125
sS'room'
p126
g73
sS'ahead'
p127
S'OBTP-FURTP-IRMRP'
p128
sS'chairs'
p129
S'OBTP-FURTP-FURRP'
p130
sS'was'
p131
S'OBTP'
p132
sS'straight'
p133
g51
sS'bed'
p134
S'OBTP-FURTP-FURRP'
p135
sS'until'
p136
g51
sS'will'
p137
g69
sS'turn'
p138
S'IRMRP'
p139
sS'of'
p140
S'OBTP-FURTP-FURRP'
p141
sS'the'
p142
g45
sS'glasses'
p143
g120
sS'll'
p144
S'OBTP'
p145
sS'at'
p146
S'FURTP-IRMRP'
p147
ssbasg32
I2
sg33
(dp148
((g79
tp149
S'of'
p150
tp151
S'OBTP-FURTP'
p152
s((S'OBTP'
p153
tp154
S'the'
p155
tp156
g69
s((S'OBTP-ORMTP-ORMRP'
p157
tp158
g146
tp159
S'OBTP-FURTP'
p160
s((g51
tp161
g56
tp162
g51
s((g59
tp163
S'to'
p164
tp165
S'OBTP-FURTP-IRMRP'
p166
s((S'OBTP-IRMRP'
p167
tp168
g96
tp169
S'OBTP-IRMRP'
p170
s((S'FURTP-FURRP'
p171
tp172
S'the'
p173
tp174
S'FURTP-FURRP'
p175
s((S'OBTP-FURTP-FURRP'
p176
tp177
S'at'
p178
tp179
S'OBTP-FURTP-IRMRP'
p180
s((g100
tp181
S'ahead'
p182
tp183
S'OBTP-IRMRP'
p184
s((S'OBTP-FURTP-FURRP'
p185
tp186
S'right'
p187
tp188
S'OBTP-FURTP-FURRP'
p189
s((S'OBTP-ORMTP'
p190
tp191
S'to'
p192
tp193
S'OBTP-ORMTP-ORMRP'
p194
s((g153
tp195
S'of'
p196
tp197
g153
s((S'OBTP-ORMTP-ORMRP'
p198
tp199
g127
tp200
S'OBTP-IRMRP'
p201
s((g36
tp202
S'walk'
p203
tp204
S'IRMRP'
p205
s((S'OBTP-IRMRP'
p206
tp207
S'on'
p208
tp209
S'OBTP-FURTP'
p210
s((S'FURTP-IRMRP'
p211
tp212
S'with'
p213
tp214
g171
s((S'OBTP-FURTP'
p215
tp216
S'in'
p217
tp218
S'OBTP-FURTP-FURRP'
p219
s((S'OBTP-FURTP-IRMRP'
p220
tp221
S'left'
p222
tp223
S'OBTP-FURTP-IRMRP'
p224
s((S'OBTP-IRMRP'
p225
tp226
S'left'
p227
tp228
S'OBTP-IRMRP'
p229
s((S'OBTP-IRMRP'
p230
tp231
S'room'
p232
tp233
S'OBTP-IRMRP'
p234
s((S'OBTP-IRMRP'
p235
tp236
g86
tp237
S'OBTP-IRMRP'
p238
s((g109
tp239
S'go'
p240
tp241
g43
s((S'FURTP-IRMRP'
p242
tp243
S'you'
p244
tp245
S'FURTP-IRMRP'
p246
s((g166
tp247
S'the'
p248
tp249
S'OBTP-FURTP-IRMRP'
p250
s((S'OBTP-ORMTP'
p251
tp252
S'in'
p253
tp254
S'OBTP-IRMRP'
p255
s((g63
tp256
S'the'
p257
tp258
g63
s((S'OBTP-ORMTP-ORMRP'
p259
tp260
g108
tp261
S'OBTP-ORMTP-ORMRP'
p262
s((S'FURTP-IRMRP'
p263
tp264
S'straight'
p265
tp266
S'FURTP-IRMRP'
p267
s((S'FURTP'
p268
tp269
S'table'
p270
tp271
g268
s((S'OBTP-ORMTP'
p272
tp273
g126
tp274
S'OBTP-ORMTP'
p275
s((S'OBTP-ORMTP'
p276
tp277
S'directly'
p278
tp279
S'OBTP-IRMRP'
p280
s((g63
tp281
S'go'
p282
tp283
g90
s((S'OBTP-ORMTP-ORMRP'
p284
tp285
g58
tp286
g235
s((g175
tp287
S'chairs'
p288
tp289
S'FURTP-FURRP'
p290
s((g229
tp291
g42
tp292
S'OBTP-IRMRP'
p293
s((g141
tp294
S'the'
p295
tp296
S'OBTP-FURTP-FURRP'
p297
s((g61
tp298
S'the'
p299
tp300
g272
s((S'FURTP-IRMRP'
p301
tp302
S'forward'
p303
tp304
S'FURTP-IRMRP'
p305
s((S'OBTP-ORMTP-ORMRP'
p306
tp307
S'in'
p308
tp309
S'OBTP-IRMRP'
p310
s((g224
tp311
S'wall'
p312
tp313
S'OBTP-FURTP-IRMRP'
p314
s((S'FURTP'
p315
tp316
S'to'
p317
tp318
g315
s((tS'walk'
p319
tp320
S'FURTP-IRMRP'
p321
s((S'OBTP-ORMTP'
p322
tp323
g72
tp324
S'OBTP-ORMTP'
p325
s((S'OBTP-FURTP-FURRP'
p326
tp327
S'left'
p328
tp329
S'OBTP-FURTP-FURRP'
p330
s((S'OBTP-FURTP'
p331
tp332
S'to'
p333
tp334
S'OBTP-FURTP-IRMRP'
p335
s((g122
tp336
S'the'
p337
tp338
S'OBTP-FURTP'
p339
s((g51
tp340
S'back'
p341
tp342
g51
s((S'FURTP-IRMRP'
p343
tp344
S'wall'
p345
tp346
S'FURTP-IRMRP'
p347
s((S'OBTP-IRMRP'
p348
tp349
g106
tp350
S'OBTP-IRMRP'
p351
s((S'OBTP'
p352
tp353
S'directly'
p354
tp355
S'OBTP-IRMRP'
p356
s((S'OBTP-ORMTP'
p357
tp358
S'about'
p359
tp360
S'OBTP-IRMRP'
p361
s((g51
tp362
S'at'
p363
tp364
g51
s((S'OBTP-ORMTP'
p365
tp366
g46
tp367
S'OBTP-ORMTP'
p368
s((g139
tp369
S'right'
p370
tp371
g139
s((g153
tp372
S'top'
p373
tp374
g153
s((S'OBTP'
p375
tp376
S'in'
p377
tp378
g61
s((g51
tp379
S'you'
p380
tp381
g51
s((S'OBTP'
p382
tp383
S'on'
p384
tp385
S'OBTP-FURTP'
p386
s((S'OBTP-IRMRP'
p387
tp388
g48
tp389
S'OBTP-IRMRP'
p390
s((S'OBTP-ORMTP'
p391
tp392
g92
tp393
S'OBTP-ORMTP'
p394
s((S'OBTP-FURTP-FURRP'
p395
tp396
S'table'
p397
tp398
S'OBTP-FURTP-FURRP'
p399
s((g75
tp400
S'of'
p401
tp402
S'OBTP-IRMRP'
p403
s((S'OBTP-IRMRP'
p404
tp405
g70
tp406
S'OBTP-IRMRP'
p407
s((g147
tp408
S'the'
p409
tp410
g268
s((S'FURTP-FURRP'
p411
tp412
g66
tp413
S'FURTP-FURRP'
p414
s((S'OBTP'
p415
tp416
S'against'
p417
tp418
S'OBTP-IRMRP'
p419
s((g315
tp420
S'with'
p421
tp422
S'FURTP-FURRP'
p423
s((g305
tp424
S'to'
p425
tp426
S'FURTP-IRMRP'
p427
s((S'ORMTP'
p428
tp429
S'walk'
p430
tp431
g51
s((g315
tp432
S'forward'
p433
tp434
g315
s((g315
tp435
S'the'
p436
tp437
g315
s((g36
tp438
S'go'
p439
tp440
S'IRMRP'
p441
s((S'OBTP-FURTP-IRMRP'
p442
tp443
S'end'
p444
tp445
S'OBTP-FURTP-IRMRP'
p446
s((S'IRMTP'
p447
tp448
S'forward'
p449
tp450
g447
s((g238
tp451
S'the'
p452
tp453
S'OBTP-IRMRP'
p454
s((S'OBTP-IRMRP'
p455
tp456
g124
tp457
S'OBTP-IRMRP'
p458
s((g454
tp459
S'right'
p460
tp461
S'OBTP-IRMRP'
p462
s((S'OBTP-ORMTP-ORMRP'
p463
tp464
S'the'
p465
tp466
S'OBTP-ORMTP-ORMRP'
p467
s((g467
tp468
g37
tp469
g284
s((S'FURTP-IRMRP'
p470
tp471
S'back'
p472
tp473
S'FURTP-IRMRP'
p474
s((S'OBTP-FURTP'
p475
tp476
S'at'
p477
tp478
S'OBTP-FURTP-IRMRP'
p479
s((g262
tp480
S'on'
p481
tp482
g122
s((g275
tp483
g121
tp484
S'OBTP-FURTP'
p485
s((S'OBTP'
p486
tp487
S'about'
p488
tp489
S'OBTP-IRMRP'
p490
s((S'FURTP'
p491
tp492
S'against'
p493
tp494
S'FURTP-IRMRP'
p495
s((S'OBTP-ORMTP'
p496
tp497
S'at'
p498
tp499
S'OBTP-IRMRP'
p500
s((S'OBTP-ORMTP-ORMRP'
p501
tp502
g123
tp503
g404
s((g71
tp504
S'in'
p505
tp506
g71
s((g407
tp507
S'in'
p508
tp509
g206
s((g267
tp510
S'until'
p511
tp512
g242
s((g51
tp513
S'the'
p514
tp515
g51
s((S'OBTP'
p516
tp517
S'at'
p518
tp519
S'OBTP-IRMRP'
p520
s((S'OBTP-FURTP-IRMRP'
p521
tp522
S'in'
p523
tp524
S'OBTP-FURTP-FURRP'
p525
ssbag29
asg32
I3
sg33
(dp526
((S'ORMTP'
p527
g36
tp528
S'go'
p529
tp530
g441
s((g259
g262
tp531
g481
tp532
g122
s((S'ORMTP'
p533
g533
tp534
S'go'
p535
tp536
g90
s((g407
g206
tp537
g208
tp538
g210
s((S'OBTP-FURTP'
p539
S'OBTP-FURTP'
p540
tp541
S'to'
p542
tp543
g335
s((g428
g428
tp544
g430
tp545
g51
s((g47
g47
tp546
S'the'
p547
tp548
g63
s((S'OBTP'
p549
g549
tp550
S'at'
p551
tp552
g520
s((S'IRMRP'
p553
g553
tp554
S'go'
p555
tp556
g43
s((g382
g382
tp557
g384
tp558
g386
s((g375
g375
tp559
g377
tp560
g61
s((g205
g205
tp561
S'you'
p562
tp563
g51
s((g36
tp564
S'go'
p565
tp566
S'IRMRP'
p567
s((g272
g275
tp568
g121
tp569
g485
s((g268
S'FURTP-IRMRP'
p570
tp571
S'the'
p572
tp573
g470
s((S'ORMTP'
p574
g36
tp575
g203
tp576
g205
s((g36
tp577
S'walk'
p578
tp579
S'FURTP-IRMRP'
p580
s((g153
g153
tp581
g155
tp582
g69
s((S'OBTP-ORMTP-ORMRP'
p583
g157
tp584
g146
tp585
g160
ssbag24
ag29
asg32
I4
sg33
(dp586
((g527
g527
g36
tp587
g529
tp588
g441
s((g404
g407
g206
tp589
g208
tp590
g210
s((g574
g574
g36
tp591
g203
tp592
g205
s((g375
g375
g375
tp593
g377
tp594
g61
s((g61
g272
g275
tp595
g121
tp596
g485
s((g549
g549
g549
tp597
g551
tp598
g520
s((g428
g428
g428
tp599
g430
tp600
g51
s((S'OBTP-FURTP'
p601
g539
g540
tp602
g542
tp603
g335
s((g205
g205
g205
tp604
g562
tp605
g51
s((g382
g382
g382
tp606
g384
tp607
g386
s((g36
tp608
g565
tp609
g567
s((g533
g533
g533
tp610
g535
tp611
g90
s((g153
S'OBTP-FURTP'
p612
S'OBTP-FURTP'
p613
tp614
S'to'
p615
tp616
S'OBTP-FURTP-FURRP'
p617
s((g153
g153
g153
tp618
g155
tp619
g69
s((S'OBTP-ORMTP-ORMRP'
p620
g583
g157
tp621
g146
tp622
g160
s((g36
g553
g553
tp623
g555
tp624
g315
s((S'OBTP-ORMTP-ORMRP'
p625
g259
g262
tp626
g481
tp627
g122
s((g47
g47
g47
tp628
g547
tp629
S'OBTP'
p630
ssbag19
ag24
ag29
asg32
I5
sg33
(dp631
((g574
g574
g574
g36
tp632
g203
tp633
g205
s((g382
g382
g382
g382
tp634
g384
tp635
g386
s((S'OBTP-ORMTP'
p636
g625
g259
g262
tp637
g481
tp638
g122
s((g533
g533
g533
g533
tp639
g535
tp640
g90
s((S'ORMTP'
p641
g375
g375
g375
tp642
g377
tp643
S'OBTP-IRMRP'
p644
s((S'OBTP-ORMTP-ORMRP'
p645
g601
g539
g540
tp646
g542
tp647
g335
s((g36
g36
S'IRMRP'
p648
g648
tp649
S'go'
p650
tp651
g315
s((g153
g153
g153
g153
tp652
g155
tp653
g612
s((g45
g61
g272
g275
tp654
g121
tp655
g463
s((S'OBTP-FURTP'
p656
S'OBTP-FURTP'
p657
S'OBTP-FURTP'
p658
S'OBTP-FURTP'
p659
tp660
S'to'
p661
tp662
S'OBTP-FURTP-FURRP'
p663
s((g486
g490
S'OBTP-IRMRP'
p664
S'OBTP-IRMRP'
p665
tp666
S'on'
p667
tp668
S'OBTP-FURTP'
p669
s((S'ORMTP'
p670
S'OBTP'
p671
g671
g671
tp672
S'on'
p673
tp674
S'OBTP-FURTP'
p675
s((g501
g404
g407
g206
tp676
g208
tp677
S'OBTP-FURTP'
p678
s((S'OBTP-ORMTP'
p679
g620
g583
g157
tp680
g146
tp681
g160
s((g205
g205
g205
g205
tp682
g562
tp683
g43
s((S'OBTP'
p684
g684
g684
tp685
S'at'
p686
tp687
S'OBTP-FURTP'
p688
s((S'ORMTP'
p689
g549
g549
g549
tp690
g551
tp691
g520
s((S'OBTP-ORMTP'
p692
S'OBTP-FURTP'
p693
S'OBTP-FURTP'
p694
S'OBTP-FURTP'
p695
tp696
S'to'
p697
tp698
S'OBTP-FURTP-IRMRP'
p699
s((g527
g527
g527
g36
tp700
g529
tp701
g441
s((g357
g361
S'OBTP-IRMRP'
p702
S'OBTP-IRMRP'
p703
tp704
S'on'
p705
tp706
S'OBTP-FURTP'
p707
s((S'OBTP-ORMTP'
p708
S'OBTP-ORMTP'
p709
S'OBTP-ORMTP'
p710
S'OBTP-ORMTP'
p711
tp712
S'on'
p713
tp714
g485
s((g36
tp715
g565
tp716
g567
s((S'OBTP'
p717
S'OBTP-FURTP'
p718
S'OBTP-FURTP'
p719
S'OBTP-FURTP'
p720
tp721
S'to'
p722
tp723
S'OBTP-FURTP-IRMRP'
p724
s((g428
g428
g428
g428
tp725
g430
tp726
g51
ssbsS'_training_stats'
p727
(dp728
S'min_score'
p729
I4
sS'finalacc'
p730
F0.9897279289283731
sS'min_acc'
p731
NsS'tokencount'
p732
I3602
sS'initialacc'
p733
F0.9064408661854525
sS'templatecount'
p734
I24
sS'sequencecount'
p735
I206
sS'initialerrors'
p736
I337
sS'finalerrors'
p737
I37
sS'rulescores'
p738
(lp739
I50
aI40
aI28
aI26
aI25
aI14
aI14
aI21
aI12
aI10
aI8
aI9
aI7
aI7
aI7
aI7
aI7
aI4
aI4
assS'_rules'
p740
(g0
(cnltk.tbl.rule
Rule
p741
g2
Ntp742
Rp743
(dp744
S'replacement_tag'
p745
S'OBTP-FURTP-FURRP'
p746
sS'_Rule__hash'
p747
I-2655651008321126920
sS'_Rule__repr'
p748
S"Rule('040', 'OBTP-FURTP-IRMRP', 'OBTP-FURTP-FURRP', [(Word([1, 2]),'of')])"
p749
sS'templateid'
p750
S'040'
p751
sS'original_tag'
p752
g224
sS'_conditions'
p753
((g0
(cnltk.tag.brill
Word
p754
g2
Ntp755
Rp756
(dp757
S'positions'
p758
(I1
I2
tp759
sS'PROPERTY_NAME'
p760
S'Word'
p761
sbS'of'
p762
tp763
tp764
sbg0
(g741
g2
Ntp765
Rp766
(dp767
g745
S'OBTP-IRMRP'
p768
sg747
I-2636029429067817874
sg748
S"Rule('040', 'OBTP-FURTP', 'OBTP-IRMRP', [(Word([1, 2]),'right')])"
p769
sg750
g751
sg752
g339
sg753
((g756
S'right'
p770
tp771
tp772
sbg0
(g741
g2
Ntp773
Rp774
(dp775
g745
S'OBTP-IRMRP'
p776
sg747
I3277015333397869816
sg748
S"Rule('030', 'OBTP-FURTP-IRMRP', 'OBTP-IRMRP', [(Pos([-3, -2, -1]),'OBTP-IRMRP')])"
p777
sg750
S'030'
p778
sg752
g38
sg753
((g0
(cnltk.tag.brill
Pos
p779
g2
Ntp780
Rp781
(dp782
g758
(I-3
I-2
I-1
tp783
sg760
S'Pos'
p784
sbg768
tp785
tp786
sbg0
(g741
g2
Ntp787
Rp788
(dp789
g745
S'OBTP-FURTP'
p790
sg747
I-5278962363786006603
sg748
S"Rule('039', 'OBTP-ORMTP-ORMRP', 'OBTP-FURTP', [(Word([-2, -1]),'bedroom')])"
p791
sg750
S'039'
p792
sg752
g467
sg753
((g0
(g754
g2
Ntp793
Rp794
(dp795
g758
(I-2
I-1
tp796
sg760
g761
sbS'bedroom'
p797
tp798
tp799
sbg0
(g741
g2
Ntp800
Rp801
(dp802
g745
S'OBTP-FURTP-FURRP'
p803
sg747
I-8399689622235629116
sg748
S"Rule('032', 'OBTP-FURTP-IRMRP', 'OBTP-FURTP-FURRP', [(Pos([-1]),'OBTP-FURTP'), (Pos([1]),'OBTP-FURTP-FURRP')])"
p804
sg750
S'032'
p805
sg752
g724
sg753
((g0
(g779
g2
Ntp806
Rp807
(dp808
g758
(I-1
tp809
sg760
g784
sbg65
tp810
(g0
(g779
g2
Ntp811
Rp812
(dp813
g758
(I1
tp814
sg760
g784
sbg746
tp815
tp816
sbg0
(g741
g2
Ntp817
Rp818
(dp819
g745
S'FURTP-IRMRP'
p820
sg747
I-4119106530315795426
sg748
S"Rule('029', 'OBTP-FURTP-IRMRP', 'FURTP-IRMRP', [(Pos([1, 2]),'OBTP-FURTP')])"
p821
sg750
S'029'
p822
sg752
g250
sg753
((g0
(g779
g2
Ntp823
Rp824
(dp825
g758
(I1
I2
tp826
sg760
g784
sbg49
tp827
tp828
sbg0
(g741
g2
Ntp829
Rp830
(dp831
g745
S'FURTP-IRMRP'
p832
sg747
I6274420696384504104
sg748
S"Rule('031', 'IRMRP', 'FURTP-IRMRP', [(Pos([1, 2, 3]),'OBTP-FURTP')])"
p833
sg750
S'031'
p834
sg752
g51
sg753
((g0
(g779
g2
Ntp835
Rp836
(dp837
g758
(I1
I2
I3
tp838
sg760
g784
sbg65
tp839
tp840
sbg0
(g741
g2
Ntp841
Rp842
(dp843
g745
S'FURTP-IRMRP'
p844
sg747
I-2747884488264844764
sg748
S"Rule('031', 'IRMRP', 'FURTP-IRMRP', [(Pos([1, 2, 3]),'FURTP-IRMRP')])"
p845
sg750
g834
sg752
g51
sg753
((g836
g832
tp846
tp847
sbg0
(g741
g2
Ntp848
Rp849
(dp850
g745
S'FURTP-FURRP'
p851
sg747
I-1665685964825726656
sg748
S"Rule('031', 'OBTP-FURTP-FURRP', 'FURTP-FURRP', [(Pos([1, 2, 3]),'O')])"
p852
sg750
g834
sg752
g67
sg753
((g836
g36
tp853
tp854
sbg0
(g741
g2
Ntp855
Rp856
(dp857
g745
S'OBTP-IRMRP'
p858
sg747
I7620918947497174376
sg748
S"Rule('040', 'OBTP-FURTP', 'OBTP-IRMRP', [(Word([1, 2]),'left')])"
p859
sg750
g751
sg752
g790
sg753
((g756
S'left'
p860
tp861
tp862
sbg0
(g741
g2
Ntp863
Rp864
(dp865
g745
S'OBTP-IRMRP'
p866
sg747
I-7306461642627234759
sg748
S"Rule('040', 'OBTP-FURTP', 'OBTP-IRMRP', [(Word([1, 2]),'far')])"
p867
sg750
g751
sg752
g790
sg753
((g756
S'far'
p868
tp869
tp870
sbg0
(g741
g2
Ntp871
Rp872
(dp873
g745
S'OBTP-IRMRP'
p874
sg747
I3277015333397869816
sg748
S"Rule('030', 'OBTP-FURTP-IRMRP', 'OBTP-IRMRP', [(Pos([-3, -2, -1]),'OBTP-IRMRP')])"
p875
sg750
g778
sg752
g446
sg753
((g781
g866
tp876
tp877
sbg0
(g741
g2
Ntp878
Rp879
(dp880
g745
S'FURTP'
p881
sg747
I-2463858593983715078
sg748
S"Rule('024', 'OBTP-FURTP', 'FURTP', [(Pos([-1]),'FURTP-IRMRP')])"
p882
sg750
S'024'
p883
sg752
g65
sg753
((g0
(g779
g2
Ntp884
Rp885
(dp886
g758
(I-1
tp887
sg760
g784
sbg832
tp888
tp889
sbg0
(g741
g2
Ntp890
Rp891
(dp892
g745
S'FURTP-IRMRP'
p893
sg747
I422557361750382326
sg748
S"Rule('025', 'IRMRP', 'FURTP-IRMRP', [(Pos([1]),'FURTP-IRMRP')])"
p894
sg750
S'025'
p895
sg752
g567
sg753
((g0
(g779
g2
Ntp896
Rp897
(dp898
g758
(I1
tp899
sg760
g784
sbg844
tp900
tp901
sbg0
(g741
g2
Ntp902
Rp903
(dp904
g745
S'OBTP-IRMRP'
p905
sg747
I2406307828513159046
sg748
S"Rule('026', 'IRMRP', 'OBTP-IRMRP', [(Pos([-2]),'OBTP-IRMRP')])"
p906
sg750
S'026'
p907
sg752
g43
sg753
((g0
(g779
g2
Ntp908
Rp909
(dp910
g758
(I-2
tp911
sg760
g784
sbg858
tp912
tp913
sbg0
(g741
g2
Ntp914
Rp915
(dp916
g745
S'FURTP'
p917
sg747
I-1524146167031021256
sg748
S"Rule('034', 'FURTP-IRMRP', 'FURTP', [(Pos([1]),'FURTP'), (Pos([2]),'FURTP-IRMRP')])"
p918
sg750
S'034'
p919
sg752
g832
sg753
((g0
(g779
g2
Ntp920
Rp921
(dp922
g758
(I1
tp923
sg760
g784
sbg881
tp924
(g0
(g779
g2
Ntp925
Rp926
(dp927
g758
(I2
tp928
sg760
g784
sbg820
tp929
tp930
sbg0
(g741
g2
Ntp931
Rp932
(dp933
g745
S'FURTP-IRMRP'
p934
sg747
I8323614137706283353
sg748
S"Rule('041', 'FURTP', 'FURTP-IRMRP', [(Word([-1, 0]),'back')])"
p935
sg750
S'041'
p936
sg752
g881
sg753
((g0
(g754
g2
Ntp937
Rp938
(dp939
g758
(I-1
I0
tp940
sg760
g761
sbS'back'
p941
tp942
tp943
sbg0
(g741
g2
Ntp944
Rp945
(dp946
g745
g153
sg747
I-308156510291370948
sg748
S"Rule('025', 'IRMRP', 'OBTP', [(Pos([1]),'OBTP')])"
p947
sg750
g895
sg752
g43
sg753
((g897
g69
tp948
tp949
sbg0
(g741
g2
Ntp950
Rp951
(dp952
g745
S'OBTP-FURTP'
p953
sg747
I-5428461092305661688
sg748
S"Rule('040', 'OBTP-IRMRP', 'OBTP-FURTP', [(Word([1, 2]),'table')])"
p954
sg750
g751
sg752
g390
sg753
((g756
S'table'
p955
tp956
tp957
sbtp958
sb.