ccopy_reg
_reconstructor
p0
(cnltk.tag.brill
BrillTagger
p1
c__builtin__
object
p2
Ntp3
Rp4
(dp5
S'_initial_tagger'
p6
g0
(cnltk.tag.sequential
NgramTagger
p7
g2
Ntp8
Rp9
(dp10
S'_taggers'
p11
(lp12
g9
ag0
(g7
g2
Ntp13
Rp14
(dp15
g11
(lp16
g14
ag0
(cnltk.tag.sequential
TrigramTagger
p17
g2
Ntp18
Rp19
(dp20
g11
(lp21
g19
ag0
(cnltk.tag.sequential
BigramTagger
p22
g2
Ntp23
Rp24
(dp25
g11
(lp26
g24
ag0
(cnltk.tag.sequential
UnigramTagger
p27
g2
Ntp28
Rp29
(dp30
g11
(lp31
g29
asS'_n'
p32
I1
sS'_context_to_tag'
p33
(dp34
S'and'
p35
S'O'
p36
sS'right'
p37
S'OBTP-FURTP-IRMRP'
p38
sS'left'
p39
S'IRMRP'
p40
sS'office'
p41
S'ORMTP'
p42
sS'be'
p43
S'OBTP'
p44
sS'wall'
p45
S'IRMRP'
p46
sS'is'
p47
S'OBTP'
p48
sS'move'
p49
S'IRMRP'
p50
sS'back'
p51
S'OBTP-FURTP'
p52
sS'walk'
p53
S'IRMRP'
p54
sS'nightstand'
p55
S'OBTP-FURTP'
p56
sS'are'
p57
S'FURTP-IRMRP'
p58
sS'directly'
p59
S'OBTP-IRMRP'
p60
sS'in'
p61
g54
sS'go'
p62
S'ORMTP'
p63
sS'table'
p64
S'OBTP-FURTP'
p65
sS'chair'
p66
S'OBTP-FURTP-FURRP'
p67
sS'find'
p68
S'OBTP'
p69
sS'halfway'
p70
g54
sS'hit'
p71
g46
sS'again'
p72
S'IRMRP'
p73
sS'end'
p74
S'OBTP-IRMRP'
p75
sS'monitor'
p76
S'OBTP'
p77
sS'turn'
p78
S'IRMRP'
p79
sS'with'
p80
S'FURTP-FURRP'
p81
sS'top'
p82
S'OBTP-FURTP'
p83
sS'there'
p84
g48
sS'mug'
p85
g48
sS'couch'
p86
S'OBTP-FURTP-FURRP'
p87
sS'to'
p88
S'ORMTP'
p89
sS'behind'
p90
S'OBTP-FURTP-FURRP'
p91
sS'take'
p92
S'ORMTP-ORMRP'
p93
sS'forward'
p94
S'IRMRP'
p95
sS'you'
p96
g69
sS'meeting'
p97
S'OBTP-ORMTP'
p98
sS'until'
p99
g46
sS'fork'
p100
g44
sS'then'
p101
g36
sS'll'
p102
S'OBTP'
p103
sS'door'
p104
S'ORMTP'
p105
sS'bed'
p106
S'OBTP-FURTP-FURRP'
p107
sS'living'
p108
g89
sS'far'
p109
S'OBTP-FURTP-IRMRP'
p110
sS'laptop'
p111
S'OBTP'
p112
sS'enter'
p113
S'ORMTP'
p114
sS'studio'
p115
S'ORMTP'
p116
sS'a'
p117
S'ORMTP-ORMRP'
p118
sS'statue'
p119
S'OBTP'
p120
sS'front'
p121
S'OBTP-FURTP-FURRP'
p122
sS'come'
p123
S'ORMTP'
p124
sS'by'
p125
S'OBTP-FURTP-FURRP'
p126
sS'case'
p127
g69
sS'on'
p128
S'OBTP-FURTP'
p129
sS'about'
p130
g54
sS'your'
p131
S'OBTP-IRMRP'
p132
sS'room'
p133
S'ORMTP'
p134
sS'ahead'
p135
S'OBTP-IRMRP'
p136
sS'chairs'
p137
S'OBTP-FURTP-FURRP'
p138
sS'was'
p139
S'OBTP'
p140
sS'straight'
p141
g54
sS'against'
p142
S'FURTP-IRMRP'
p143
sS'will'
p144
g44
sS'into'
p145
g124
sS'bedroom'
p146
S'ORMTP'
p147
sS'of'
p148
S'OBTP-FURTP-FURRP'
p149
sS'through'
p150
g105
sS'the'
p151
g44
sS'glasses'
p152
g69
sS'side'
p153
S'OBTP-FURTP-IRMRP'
p154
sS'at'
p155
S'FURTP-IRMRP'
p156
ssbasg32
I2
sg33
(dp157
((g83
tp158
g148
tp159
S'OBTP-FURTP'
p160
s((S'OBTP'
p161
tp162
S'the'
p163
tp164
g69
s((S'OBTP-ORMTP-ORMRP'
p165
tp166
S'at'
p167
tp168
S'OBTP-IRMRP'
p169
s((S'IRMRP'
p170
tp171
S'are'
p172
tp173
g170
s((S'OBTP-FURTP-IRMRP'
p174
tp175
S'to'
p176
tp177
S'OBTP-FURTP-IRMRP'
p178
s((g63
tp179
g94
tp180
g63
s((S'ORMTP-ORMRP'
p181
tp182
g37
tp183
S'ORMTP-ORMRP'
p184
s((S'OBTP-IRMRP'
p185
tp186
g153
tp187
S'OBTP-IRMRP'
p188
s((S'OBTP-ORMTP'
p189
tp190
g115
tp191
S'OBTP-ORMTP'
p192
s((g81
tp193
S'the'
p194
tp195
S'FURTP-FURRP'
p196
s((S'OBTP-FURTP-FURRP'
p197
tp198
S'at'
p199
tp200
S'OBTP-FURTP-IRMRP'
p201
s((S'ORMTP-ORMRP'
p202
tp203
S'on'
p204
tp205
S'ORMTP-ORMRP'
p206
s((S'OBTP-FURTP-FURRP'
p207
tp208
S'right'
p209
tp210
S'OBTP-FURTP-FURRP'
p211
s((S'OBTP-ORMTP'
p212
tp213
S'to'
p214
tp215
S'OBTP-ORMTP-ORMRP'
p216
s((g161
tp217
S'of'
p218
tp219
g161
s((g36
tp220
S'walk'
p221
tp222
g54
s((g134
tp223
S'on'
p224
tp225
S'ORMTP-ORMRP'
p226
s((S'OBTP-IRMRP'
p227
tp228
S'on'
p229
tp230
S'OBTP-FURTP'
p231
s((S'OBTP-FURTP'
p232
tp233
S'in'
p234
tp235
S'OBTP-FURTP-FURRP'
p236
s((S'FURTP'
p237
tp238
S'table'
p239
tp240
g237
s((g132
tp241
S'left'
p242
tp243
S'OBTP-IRMRP'
p244
s((S'OBTP-IRMRP'
p245
tp246
S'room'
p247
tp248
S'OBTP-IRMRP'
p249
s((g136
tp250
g88
tp251
S'OBTP-IRMRP'
p252
s((tS'take'
p253
tp254
S'ORMTP-ORMRP'
p255
s((g40
tp256
S'go'
p257
tp258
g46
s((g63
tp259
g78
tp260
g181
s((S'FURTP-IRMRP'
p261
tp262
S'you'
p263
tp264
S'FURTP-IRMRP'
p265
s((S'OBTP-FURTP-IRMRP'
p266
tp267
S'the'
p268
tp269
S'OBTP-FURTP-IRMRP'
p270
s((g124
tp271
S'the'
p272
tp273
g134
s((S'OBTP-ORMTP-ORMRP'
p274
tp275
S'left'
p276
tp277
S'OBTP-ORMTP-ORMRP'
p278
s((S'FURTP-IRMRP'
p279
tp280
S'straight'
p281
tp282
S'FURTP-IRMRP'
p283
s((S'OBTP-FURTP-IRMRP'
p284
tp285
S'left'
p286
tp287
S'OBTP-FURTP-IRMRP'
p288
s((S'OBTP-FURTP-IRMRP'
p289
tp290
S'in'
p291
tp292
S'OBTP-FURTP-FURRP'
p293
s((tS'go'
p294
tp295
g63
s((S'ORMTP'
p296
tp297
S'go'
p298
tp299
S'IRMRP'
p300
s((g196
tp301
g137
tp302
S'FURTP-FURRP'
p303
s((g296
tp304
g117
tp305
g296
s((S'OBTP-IRMRP'
p306
tp307
S'wall'
p308
tp309
S'OBTP-IRMRP'
p310
s((g149
tp311
S'the'
p312
tp313
S'OBTP-FURTP-FURRP'
p314
s((S'OBTP-ORMTP'
p315
tp316
S'the'
p317
tp318
S'OBTP-ORMTP'
p319
s((g178
tp320
S'your'
p321
tp322
g284
s((S'ORMTP-ORMRP'
p323
tp324
g39
tp325
S'ORMTP-ORMRP'
p326
s((S'OBTP-ORMTP-ORMRP'
p327
tp328
S'in'
p329
tp330
S'OBTP-IRMRP'
p331
s((g161
tp332
S'top'
p333
tp334
g161
s((S'OBTP-FURTP-IRMRP'
p335
tp336
S'wall'
p337
tp338
S'OBTP-FURTP-IRMRP'
p339
s((S'OBTP-FURTP'
p340
tp341
S'with'
p342
tp343
S'OBTP-FURTP-FURRP'
p344
s((S'FURTP'
p345
tp346
S'to'
p347
tp348
g345
s((tS'walk'
p349
tp350
S'ORMTP'
p351
s((S'OBTP-ORMTP'
p352
tp353
g108
tp354
S'OBTP-ORMTP'
p355
s((S'OBTP-FURTP-FURRP'
p356
tp357
S'left'
p358
tp359
S'OBTP-FURTP-FURRP'
p360
s((S'ORMTP-ORMRP'
p361
tp362
S'and'
p363
tp364
g36
s((g129
tp365
S'the'
p366
tp367
S'OBTP-FURTP'
p368
s((S'IRMRP'
p369
tp370
S'back'
p371
tp372
g369
s((S'FURTP-IRMRP'
p373
tp374
S'wall'
p375
tp376
S'FURTP-IRMRP'
p377
s((g206
tp378
S'the'
p379
tp380
S'ORMTP-ORMRP'
p381
s((S'OBTP-IRMRP'
p382
tp383
g109
tp384
S'OBTP-IRMRP'
p385
s((g170
tp386
S'at'
p387
tp388
g170
s((S'OBTP-ORMTP'
p389
tp390
g146
tp391
S'OBTP-ORMTP'
p392
s((S'FURTP-IRMRP'
p393
tp394
S'forward'
p395
tp396
S'FURTP-IRMRP'
p397
s((g79
tp398
S'right'
p399
tp400
g79
s((g63
tp401
g35
tp402
g63
s((S'OBTP'
p403
tp404
S'in'
p405
tp406
g315
s((g46
tp407
S'you'
p408
tp409
g46
s((g44
tp410
g128
tp411
g129
s((S'OBTP-IRMRP'
p412
tp413
S'back'
p414
tp415
S'OBTP-IRMRP'
p416
s((S'OBTP-FURTP-FURRP'
p417
tp418
S'table'
p419
tp420
S'OBTP-FURTP-FURRP'
p421
s((S'ORMTP-ORMRP'
p422
tp423
g133
tp424
g202
s((g75
tp425
S'of'
p426
tp427
S'OBTP-IRMRP'
p428
s((S'OBTP-IRMRP'
p429
tp430
S'halfway'
p431
tp432
S'OBTP-IRMRP'
p433
s((g156
tp434
S'the'
p435
tp436
g237
s((S'FURTP-FURRP'
p437
tp438
g66
tp439
S'FURTP-FURRP'
p440
s((S'OBTP'
p441
tp442
S'against'
p443
tp444
S'OBTP-IRMRP'
p445
s((S'OBTP-ORMTP'
p446
tp447
S'right'
p448
tp449
S'OBTP-ORMTP'
p450
s((g397
tp451
S'to'
p452
tp453
S'FURTP-IRMRP'
p454
s((S'ORMTP'
p455
tp456
S'walk'
p457
tp458
S'IRMRP'
p459
s((g345
tp460
S'forward'
p461
tp462
g345
s((g345
tp463
S'the'
p464
tp465
g345
s((g36
tp466
S'go'
p467
tp468
g170
s((S'OBTP-FURTP-IRMRP'
p469
tp470
S'end'
p471
tp472
S'OBTP-FURTP-IRMRP'
p473
s((S'ORMTP'
p474
tp475
S'then'
p476
tp477
g474
s((S'IRMTP'
p478
tp479
S'forward'
p480
tp481
g478
s((S'OBTP-IRMRP'
p482
tp483
S'the'
p484
tp485
S'OBTP-IRMRP'
p486
s((g296
tp487
S'right'
p488
tp489
g296
s((S'OBTP-ORMTP'
p490
tp491
g41
tp492
S'OBTP-ORMTP'
p493
s((g486
tp494
S'right'
p495
tp496
S'OBTP-IRMRP'
p497
s((S'OBTP-ORMTP-ORMRP'
p498
tp499
S'the'
p500
tp501
S'OBTP-ORMTP-ORMRP'
p502
s((g502
tp503
S'right'
p504
tp505
S'OBTP-ORMTP-ORMRP'
p506
s((S'FURTP-IRMRP'
p507
tp508
g51
tp509
S'FURTP-IRMRP'
p510
s((S'OBTP-FURTP'
p511
tp512
S'at'
p513
tp514
S'OBTP-FURTP-IRMRP'
p515
s((g278
tp516
S'on'
p517
tp518
S'OBTP-FURTP'
p519
s((S'ORMTP'
p520
tp521
g141
tp522
g520
s((S'OBTP-ORMTP'
p523
tp524
S'on'
p525
tp526
g498
s((S'OBTP-FURTP'
p527
tp528
S'against'
p529
tp530
S'OBTP-FURTP-IRMRP'
p531
s((S'ORMTP-ORMRP'
p532
tp533
S'go'
p534
tp535
g95
s((S'OBTP'
p536
tp537
S'about'
p538
tp539
S'OBTP-IRMRP'
p540
s((S'OBTP-FURTP'
p541
tp542
S'ahead'
p543
tp544
g174
s((S'OBTP-ORMTP-ORMRP'
p545
tp546
S'about'
p547
tp548
g429
s((g433
tp549
S'in'
p550
tp551
g227
s((g283
tp552
S'until'
p553
tp554
g261
s((g46
tp555
S'the'
p556
tp557
g46
s((S'OBTP-FURTP'
p558
tp559
S'directly'
p560
tp561
S'OBTP-FURTP-IRMRP'
p562
s((S'OBTP'
p563
tp564
S'at'
p565
tp566
S'OBTP-IRMRP'
p567
s((g65
tp568
S'to'
p569
tp570
S'OBTP-FURTP-FURRP'
p571
s((g319
tp572
S'room'
p573
tp574
g523
ssbag29
asg32
I3
sg33
(dp575
((S'ORMTP-ORMRP'
p576
g36
tp577
g221
tp578
g54
s((S'ORMTP'
p579
g579
tp580
S'go'
p581
tp582
g300
s((g455
g455
tp583
g457
tp584
g459
s((S'ORMTP-ORMRP'
p585
g36
tp586
S'go'
p587
tp588
g170
s((S'ORMTP-ORMRP'
p589
g361
tp590
g363
tp591
g36
s((g446
g450
tp592
S'on'
p593
tp594
g498
s((S'ORMTP'
p595
g36
tp596
S'go'
p597
tp598
S'IRMRP'
p599
s((g368
g65
tp600
g569
tp601
g571
s((g124
g124
tp602
g272
tp603
g134
s((S'OBTP'
p604
g604
tp605
S'at'
p606
tp607
g567
s((S'IRMRP'
p608
g608
tp609
S'go'
p610
tp611
g46
s((tg294
tp612
g63
s((g44
g44
tp613
g128
tp614
g129
s((S'ORMTP'
p615
g36
tp616
S'walk'
p617
tp618
S'FURTP-IRMRP'
p619
s((g351
g351
tp620
S'and'
p621
tp622
g63
s((g361
S'ORMTP-ORMRP'
p623
tp624
S'the'
p625
tp626
S'OBTP'
p627
s((g237
S'FURTP-IRMRP'
p628
tp629
S'the'
p630
tp631
g507
s((g36
tp632
S'walk'
p633
tp634
S'IRMRP'
p635
s((g274
g278
tp636
g517
tp637
g519
s((g433
g227
tp638
g229
tp639
g231
s((S'ORMTP-ORMRP'
p640
S'ORMTP-ORMRP'
p641
tp642
S'go'
p643
tp644
g95
s((S'OBTP-ORMTP'
p645
S'OBTP-ORMTP'
p646
tp647
S'to'
p648
tp649
g216
s((tS'walk'
p650
tp651
g351
s((S'OBTP'
p652
g652
tp653
S'in'
p654
tp655
g315
s((g36
tp656
S'go'
p657
tp658
S'IRMRP'
p659
s((S'IRMRP'
p660
g660
tp661
S'you'
p662
tp663
g46
s((g161
g161
tp664
g163
tp665
g69
s((S'OBTP-ORMTP-ORMRP'
p666
S'OBTP-ORMTP-ORMRP'
p667
tp668
S'at'
p669
tp670
g169
s((tg253
tp671
g255
ssbag24
ag29
asg32
I4
sg33
(dp672
((g652
g652
g652
tp673
g654
tp674
g315
s((g351
g351
g351
tp675
g621
tp676
g36
s((S'ORMTP'
p677
g589
g361
tp678
g363
tp679
g36
s((g455
g455
g455
tp680
g457
tp681
g459
s((g89
g89
g89
tp682
S'the'
p683
tp684
S'OBTP'
p685
s((g429
g433
g227
tp686
g229
tp687
g231
s((g422
g202
g206
tp688
g379
tp689
g627
s((g124
g124
tp690
g272
tp691
g134
s((tg294
tp692
g63
s((S'OBTP-ORMTP'
p693
g645
g646
tp694
g648
tp695
g216
s((g216
g274
g278
tp696
g517
tp697
g519
s((S'ORMTP'
p698
g698
g36
tp699
S'walk'
p700
tp701
g619
s((S'OBTP-ORMTP'
p702
g446
g450
tp703
g593
tp704
g498
s((S'ORMTP-ORMRP'
p705
g585
g36
tp706
g587
tp707
g170
s((g604
g604
g604
tp708
g606
tp709
g567
s((g129
g368
g65
tp710
g569
tp711
g571
s((S'ORMTP-ORMRP'
p712
g576
g36
tp713
g221
tp714
g54
s((g44
g44
g44
tp715
g128
tp716
g129
s((g161
g161
g161
tp717
g163
tp718
g69
s((S'OBTP-ORMTP-ORMRP'
p719
g666
g667
tp720
g669
tp721
g169
s((g36
tp722
g633
tp723
g635
s((g36
g608
g608
tp724
g610
tp725
g393
s((g595
g595
g36
tp726
g597
tp727
g599
s((tg650
tp728
g351
s((g660
g660
g660
tp729
g662
tp730
g46
s((g36
tp731
g657
tp732
g659
s((g579
g579
g579
tp733
g581
tp734
g300
s((S'ORMTP-ORMRP'
p735
g640
g641
tp736
g643
tp737
g95
s((tg253
tp738
g255
ssbag19
ag24
ag29
asg32
I5
sg33
(dp739
((g698
g698
g698
g36
tp740
g700
tp741
g619
s((g44
g44
g44
g44
tp742
g128
tp743
g129
s((g161
g161
g161
g161
tp744
g163
tp745
S'OBTP-FURTP'
p746
s((g652
g652
g652
tp747
g654
tp748
g315
s((g212
g216
g274
g278
tp749
g517
tp750
g519
s((g579
g579
g579
g579
tp751
g581
tp752
S'IRMRP'
p753
s((S'ORMTP'
p754
S'OBTP'
p755
g755
g755
tp756
S'in'
p757
tp758
S'OBTP-IRMRP'
p759
s((S'OBTP-ORMTP-ORMRP'
p760
S'OBTP-FURTP'
p761
S'OBTP-FURTP'
p762
S'OBTP-FURTP'
p763
tp764
S'to'
p765
tp766
S'OBTP-FURTP-IRMRP'
p767
s((g36
g36
S'IRMRP'
p768
g768
tp769
S'go'
p770
tp771
g393
s((g124
g124
tp772
g272
tp773
g134
s((tg294
tp774
g63
s((g536
g540
S'OBTP-IRMRP'
p775
S'OBTP-IRMRP'
p776
tp777
S'on'
p778
tp779
S'OBTP-FURTP'
p780
s((S'ORMTP'
p781
S'OBTP'
p782
g782
g782
tp783
S'on'
p784
tp785
S'OBTP-FURTP'
p786
s((g545
g429
g433
g227
tp787
g229
tp788
S'OBTP-IRMRP'
p789
s((S'ORMTP'
p790
g705
g585
g36
tp791
g587
tp792
g170
s((S'OBTP-ORMTP'
p793
g719
g666
g667
tp794
g669
tp795
g169
s((g660
g660
g660
g660
tp796
g662
tp797
g46
s((g124
g422
g202
g206
tp798
g379
tp799
g627
s((g604
g604
g604
tp800
g606
tp801
g567
s((S'ORMTP'
p802
g735
g640
g641
tp803
g643
tp804
g95
s((S'OBTP'
p805
g805
g805
tp806
S'on'
p807
tp808
S'OBTP-FURTP'
p809
s((S'OBTP-ORMTP'
p810
g693
g645
g646
tp811
g648
tp812
S'OBTP-ORMTP-ORMRP'
p813
s((g36
tp814
g633
tp815
g635
s((S'ORMTP'
p816
S'OBTP'
p817
g817
g817
tp818
S'at'
p819
tp820
S'OBTP-IRMRP'
p821
s((S'ORMTP'
p822
g712
g576
g36
tp823
g221
tp824
g54
s((g595
g595
g595
g36
tp825
g597
tp826
g599
s((g646
g702
g446
g450
tp827
g593
tp828
S'OBTP-ORMTP-ORMRP'
p829
s((tg650
tp830
g351
s((g36
tp831
g657
tp832
g659
s((S'OBTP'
p833
g129
g368
g65
tp834
g569
tp835
g266
s((g677
g677
g589
g361
tp836
g363
tp837
g36
s((g455
g455
g455
g455
tp838
g457
tp839
g459
s((tg253
tp840
g255
ssbsS'_training_stats'
p841
(dp842
S'min_score'
p843
I4
sS'finalacc'
p844
F0.9918007584298453
sS'min_acc'
p845
NsS'tokencount'
p846
I9757
sS'initialacc'
p847
F0.8958696320590346
sS'templatecount'
p848
I24
sS'sequencecount'
p849
I580
sS'initialerrors'
p850
I1016
sS'finalerrors'
p851
I80
sS'rulescores'
p852
(lp853
I138
aI99
aI74
aI69
aI38
aI38
aI31
aI31
aI31
aI29
aI29
aI28
aI23
aI21
aI19
aI19
aI19
aI19
aI16
aI15
aI15
aI14
aI17
aI13
aI12
aI10
aI10
aI9
aI9
aI8
aI8
aI7
aI6
aI6
aI6
assS'_rules'
p854
(g0
(cnltk.tbl.rule
Rule
p855
g2
Ntp856
Rp857
(dp858
S'replacement_tag'
p859
S'OBTP-FURTP-FURRP'
p860
sS'_Rule__hash'
p861
I-2655651008321126920
sS'_Rule__repr'
p862
S"Rule('040', 'OBTP-FURTP-IRMRP', 'OBTP-FURTP-FURRP', [(Word([1, 2]),'of')])"
p863
sS'templateid'
p864
S'040'
p865
sS'original_tag'
p866
g288
sS'_conditions'
p867
((g0
(cnltk.tag.brill
Word
p868
g2
Ntp869
Rp870
(dp871
S'positions'
p872
(I1
I2
tp873
sS'PROPERTY_NAME'
p874
S'Word'
p875
sbS'of'
p876
tp877
tp878
sbg0
(g855
g2
Ntp879
Rp880
(dp881
g859
S'OBTP-IRMRP'
p882
sg861
I-2636029429067817874
sg862
S"Rule('040', 'OBTP-FURTP', 'OBTP-IRMRP', [(Word([1, 2]),'right')])"
p883
sg864
g865
sg866
g368
sg867
((g870
S'right'
p884
tp885
tp886
sbg0
(g855
g2
Ntp887
Rp888
(dp889
g859
S'OBTP-IRMRP'
p890
sg861
I3277015333397869816
sg862
S"Rule('030', 'OBTP-FURTP-IRMRP', 'OBTP-IRMRP', [(Pos([-3, -2, -1]),'OBTP-IRMRP')])"
p891
sg864
S'030'
p892
sg866
g38
sg867
((g0
(cnltk.tag.brill
Pos
p893
g2
Ntp894
Rp895
(dp896
g872
(I-3
I-2
I-1
tp897
sg874
S'Pos'
p898
sbg882
tp899
tp900
sbg0
(g855
g2
Ntp901
Rp902
(dp903
g859
S'OBTP-FURTP-FURRP'
p904
sg861
I-8399689622235629116
sg862
S"Rule('032', 'OBTP-FURTP-IRMRP', 'OBTP-FURTP-FURRP', [(Pos([-1]),'OBTP-FURTP'), (Pos([1]),'OBTP-FURTP-FURRP')])"
p905
sg864
S'032'
p906
sg866
g266
sg867
((g0
(g893
g2
Ntp907
Rp908
(dp909
g872
(I-1
tp910
sg874
g898
sbg56
tp911
(g0
(g893
g2
Ntp912
Rp913
(dp914
g872
(I1
tp915
sg874
g898
sbg860
tp916
tp917
sbg0
(g855
g2
Ntp918
Rp919
(dp920
g859
S'FURTP-IRMRP'
p921
sg861
I-4119106530315795426
sg862
S"Rule('029', 'OBTP-FURTP-IRMRP', 'FURTP-IRMRP', [(Pos([1, 2]),'OBTP-FURTP')])"
p922
sg864
S'029'
p923
sg866
g270
sg867
((g0
(g893
g2
Ntp924
Rp925
(dp926
g872
(I1
I2
tp927
sg874
g898
sbg52
tp928
tp929
sbg0
(g855
g2
Ntp930
Rp931
(dp932
g859
S'FURTP-IRMRP'
p933
sg861
I6274420696384504104
sg862
S"Rule('031', 'IRMRP', 'FURTP-IRMRP', [(Pos([1, 2, 3]),'OBTP-FURTP')])"
p934
sg864
S'031'
p935
sg866
g170
sg867
((g0
(g893
g2
Ntp936
Rp937
(dp938
g872
(I1
I2
I3
tp939
sg874
g898
sbg65
tp940
tp941
sbg0
(g855
g2
Ntp942
Rp943
(dp944
g859
S'IRMRP'
p945
sg861
I1279283161356574368
sg862
S"Rule('038', 'ORMTP-ORMRP', 'IRMRP', [(Word([2]),'you')])"
p946
sg864
S'038'
p947
sg866
g184
sg867
((g0
(g868
g2
Ntp948
Rp949
(dp950
g872
(I2
tp951
sg874
g875
sbS'you'
p952
tp953
tp954
sbg0
(g855
g2
Ntp955
Rp956
(dp957
g859
S'IRMRP'
p958
sg861
I2960160876136408908
sg862
S"Rule('032', 'ORMTP-ORMRP', 'IRMRP', [(Pos([-1]),'ORMTP'), (Pos([1]),'IRMRP')])"
p959
sg864
g906
sg866
g181
sg867
((g908
g63
tp960
(g913
g945
tp961
tp962
sbg0
(g855
g2
Ntp963
Rp964
(dp965
g859
g36
sg861
I-5257457181148818409
sg862
S"Rule('045', 'ORMTP', 'O', [(Word([1]),'turn'), (Pos([1]),'IRMRP')])"
p966
sg864
S'045'
p967
sg866
g63
sg867
((g0
(g868
g2
Ntp968
Rp969
(dp970
g872
(I1
tp971
sg874
g875
sbS'turn'
p972
tp973
(g0
(g893
g2
Ntp974
Rp975
(dp976
g872
(I1
tp977
sg874
g898
sbg958
tp978
tp979
sbg0
(g855
g2
Ntp980
Rp981
(dp982
g859
S'IRMRP'
p983
sg861
I5783244991291627638
sg862
S"Rule('047', 'ORMTP', 'IRMRP', [(Word([0]),'forward'), (Word([1]),'and'), (Pos([1]),'O')])"
p984
sg864
S'047'
p985
sg866
g63
sg867
((g0
(g868
g2
Ntp986
Rp987
(dp988
g872
(I0
tp989
sg874
g875
sbS'forward'
p990
tp991
(g0
(g868
g2
Ntp992
Rp993
(dp994
g872
(I1
tp995
sg874
g875
sbS'and'
p996
tp997
(g0
(g893
g2
Ntp998
Rp999
(dp1000
g872
(I1
tp1001
sg874
g898
sbg36
tp1002
tp1003
sbg0
(g855
g2
Ntp1004
Rp1005
(dp1006
g859
S'IRMRP'
p1007
sg861
I-6144982677429421277
sg862
S"Rule('034', 'ORMTP', 'IRMRP', [(Pos([1]),'IRMRP'), (Pos([2]),'O')])"
p1008
sg864
S'034'
p1009
sg866
g63
sg867
((g0
(g893
g2
Ntp1010
Rp1011
(dp1012
g872
(I1
tp1013
sg874
g898
sbg983
tp1014
(g0
(g893
g2
Ntp1015
Rp1016
(dp1017
g872
(I2
tp1018
sg874
g898
sbg36
tp1019
tp1020
sbg0
(g855
g2
Ntp1021
Rp1022
(dp1023
g859
S'OBTP-IRMRP'
p1024
sg861
I8461440343521068450
sg862
S"Rule('029', 'OBTP-FURTP', 'OBTP-IRMRP', [(Pos([1, 2]),'IRMRP')])"
p1025
sg864
g923
sg866
g368
sg867
((g925
g40
tp1026
tp1027
sbg0
(g855
g2
Ntp1028
Rp1029
(dp1030
g859
S'OBTP-IRMRP'
p1031
sg861
I2406307828513159046
sg862
S"Rule('026', 'IRMRP', 'OBTP-IRMRP', [(Pos([-2]),'OBTP-IRMRP')])"
p1032
sg864
S'026'
p1033
sg866
g46
sg867
((g0
(g893
g2
Ntp1034
Rp1035
(dp1036
g872
(I-2
tp1037
sg874
g898
sbg1024
tp1038
tp1039
sbg0
(g855
g2
Ntp1040
Rp1041
(dp1042
g859
S'OBTP'
p1043
sg861
I-308156510291370948
sg862
S"Rule('025', 'IRMRP', 'OBTP', [(Pos([1]),'OBTP')])"
p1044
sg864
S'025'
p1045
sg866
g46
sg867
((g0
(g893
g2
Ntp1046
Rp1047
(dp1048
g872
(I1
tp1049
sg874
g898
sbg44
tp1050
tp1051
sbg0
(g855
g2
Ntp1052
Rp1053
(dp1054
g859
S'FURTP'
p1055
sg861
I-2463858593983715078
sg862
S"Rule('024', 'OBTP-FURTP', 'FURTP', [(Pos([-1]),'FURTP-IRMRP')])"
p1056
sg864
S'024'
p1057
sg866
g65
sg867
((g0
(g893
g2
Ntp1058
Rp1059
(dp1060
g872
(I-1
tp1061
sg874
g898
sbg933
tp1062
tp1063
sbg0
(g855
g2
Ntp1064
Rp1065
(dp1066
g859
S'FURTP'
p1067
sg861
I-1524146167031021256
sg862
S"Rule('034', 'FURTP-IRMRP', 'FURTP', [(Pos([1]),'FURTP'), (Pos([2]),'FURTP-IRMRP')])"
p1068
sg864
g1009
sg866
g933
sg867
((g1011
g1055
tp1069
(g1016
g921
tp1070
tp1071
sbg0
(g855
g2
Ntp1072
Rp1073
(dp1074
g859
S'FURTP-IRMRP'
p1075
sg861
I-4705717013719515387
sg862
S"Rule('031', 'IRMRP', 'FURTP-IRMRP', [(Pos([1, 2, 3]),'FURTP')])"
p1076
sg864
g935
sg866
g46
sg867
((g937
g1067
tp1077
tp1078
sbg0
(g855
g2
Ntp1079
Rp1080
(dp1081
g859
S'FURTP-IRMRP'
p1082
sg861
I-6473295466632901545
sg862
S"Rule('045', 'IRMRP', 'FURTP-IRMRP', [(Word([1]),'you'), (Pos([1]),'FURTP-IRMRP')])"
p1083
sg864
g967
sg866
g46
sg867
((g969
S'you'
p1084
tp1085
(g975
g1075
tp1086
tp1087
sbg0
(g855
g2
Ntp1088
Rp1089
(dp1090
g859
S'OBTP-FURTP'
p1091
sg861
I-5428461092305661688
sg862
S"Rule('040', 'OBTP-IRMRP', 'OBTP-FURTP', [(Word([1, 2]),'table')])"
p1092
sg864
g865
sg866
g416
sg867
((g870
S'table'
p1093
tp1094
tp1095
sbg0
(g855
g2
Ntp1096
Rp1097
(dp1098
g859
S'FURTP-IRMRP'
p1099
sg861
I8878917868707152980
sg862
S"Rule('045', 'IRMRP', 'FURTP-IRMRP', [(Word([1]),'until'), (Pos([1]),'FURTP-IRMRP')])"
p1100
sg864
g967
sg866
g54
sg867
((g969
S'until'
p1101
tp1102
(g975
g1082
tp1103
tp1104
sbg0
(g855
g2
Ntp1105
Rp1106
(dp1107
g859
S'FURTP-IRMRP'
p1108
sg861
I3720880100741874187
sg862
S"Rule('045', 'IRMRP', 'FURTP-IRMRP', [(Word([1]),'straight'), (Pos([1]),'FURTP-IRMRP')])"
p1109
sg864
g967
sg866
g659
sg867
((g969
S'straight'
p1110
tp1111
(g975
g1099
tp1112
tp1113
sbg0
(g855
g2
Ntp1114
Rp1115
(dp1116
g859
S'IRMRP'
p1117
sg861
I-7872176538730258520
sg862
S"Rule('047', 'FURTP-IRMRP', 'IRMRP', [(Word([0]),'forward'), (Word([1]),'and'), (Pos([1]),'O')])"
p1118
sg864
g985
sg866
g397
sg867
((g987
S'forward'
p1119
tp1120
(g993
S'and'
p1121
tp1122
(g999
g36
tp1123
tp1124
sbg0
(g855
g2
Ntp1125
Rp1126
(dp1127
g859
S'IRMRP'
p1128
sg861
I-21537062371914340
sg862
S"Rule('025', 'FURTP-IRMRP', 'IRMRP', [(Pos([1]),'IRMRP')])"
p1129
sg864
g1045
sg866
g393
sg867
((g1047
g1117
tp1130
tp1131
sbg0
(g855
g2
Ntp1132
Rp1133
(dp1134
g859
S'OBTP-IRMRP'
p1135
sg861
I5319194433292020812
sg862
S"Rule('025', 'OBTP-FURTP', 'OBTP-IRMRP', [(Pos([1]),'OBTP-IRMRP')])"
p1136
sg864
g1045
sg866
g809
sg867
((g1047
g882
tp1137
tp1138
sbg0
(g855
g2
Ntp1139
Rp1140
(dp1141
g859
S'FURTP-FURRP'
p1142
sg861
I4568340285697351947
sg862
S"Rule('030', 'OBTP-FURTP-FURRP', 'FURTP-FURRP', [(Pos([-3, -2, -1]),'FURTP')])"
p1143
sg864
g892
sg866
g314
sg867
((g895
g1055
tp1144
tp1145
sbg0
(g855
g2
Ntp1146
Rp1147
(dp1148
g859
S'OBTP-IRMRP'
p1149
sg861
I6315992745818891059
sg862
S"Rule('026', 'OBTP-FURTP-IRMRP', 'OBTP-IRMRP', [(Pos([-2]),'OBTP-IRMRP')])"
p1150
sg864
g1033
sg866
g339
sg867
((g1035
g1031
tp1151
tp1152
sbg0
(g855
g2
Ntp1153
Rp1154
(dp1155
g859
S'FURTP-IRMRP'
p1156
sg861
I8323614137706283353
sg862
S"Rule('041', 'FURTP', 'FURTP-IRMRP', [(Word([-1, 0]),'back')])"
p1157
sg864
S'041'
p1158
sg866
g1055
sg867
((g0
(g868
g2
Ntp1159
Rp1160
(dp1161
g872
(I-1
I0
tp1162
sg874
g875
sbS'back'
p1163
tp1164
tp1165
sbg0
(g855
g2
Ntp1166
Rp1167
(dp1168
g859
S'FURTP-IRMRP'
p1169
sg861
I-5956757967906041928
sg862
S"Rule('024', 'IRMRP', 'FURTP-IRMRP', [(Pos([-1]),'OBTP-IRMRP')])"
p1170
sg864
g1057
sg866
g46
sg867
((g1059
g1024
tp1171
tp1172
sbg0
(g855
g2
Ntp1173
Rp1174
(dp1175
g859
S'FURTP-IRMRP'
p1176
sg861
I-4675114145256709678
sg862
S"Rule('024', 'OBTP-IRMRP', 'FURTP-IRMRP', [(Pos([-1]),'FURTP-IRMRP')])"
p1177
sg864
g1057
sg866
g1024
sg867
((g1059
g921
tp1178
tp1179
sbg0
(g855
g2
Ntp1180
Rp1181
(dp1182
g859
S'FURTP-IRMRP'
p1183
sg861
I-8834131152353342181
sg862
S"Rule('040', 'ORMTP', 'FURTP-IRMRP', [(Word([1, 2]),'until')])"
p1184
sg864
g865
sg866
g520
sg867
((g870
S'until'
p1185
tp1186
tp1187
sbg0
(g855
g2
Ntp1188
Rp1189
(dp1190
g859
S'OBTP-FURTP'
p1191
sg861
I648067811031370978
sg862
S"Rule('045', 'OBTP-IRMRP', 'OBTP-FURTP', [(Word([1]),'the'), (Pos([1]),'OBTP-FURTP')])"
p1192
sg864
g967
sg866
g567
sg867
((g969
S'the'
p1193
tp1194
(g975
g1091
tp1195
tp1196
sbg0
(g855
g2
Ntp1197
Rp1198
(dp1199
g859
S'IRMRP'
p1200
sg861
I-2680172851095386273
sg862
S"Rule('027', 'FURTP-IRMRP', 'IRMRP', [(Pos([2]),'IRMRP')])"
p1201
sg864
S'027'
p1202
sg866
g1183
sg867
((g0
(g893
g2
Ntp1203
Rp1204
(dp1205
g872
(I2
tp1206
sg874
g898
sbg46
tp1207
tp1208
sbg0
(g855
g2
Ntp1209
Rp1210
(dp1211
g859
S'OBTP-IRMRP'
p1212
sg861
I-1486180734479319321
sg862
S"Rule('029', 'OBTP-ORMTP', 'OBTP-IRMRP', [(Pos([1, 2]),'OBTP-FURTP')])"
p1213
sg864
g923
sg866
g319
sg867
((g925
g52
tp1214
tp1215
sbg0
(g855
g2
Ntp1216
Rp1217
(dp1218
g859
S'IRMRP'
p1219
sg861
I-229119546103856560
sg862
S"Rule('036', 'ORMTP', 'IRMRP', [(Word([1]),'about')])"
p1220
sg864
S'036'
p1221
sg866
g520
sg867
((g0
(g868
g2
Ntp1222
Rp1223
(dp1224
g872
(I1
tp1225
sg874
g875
sbS'about'
p1226
tp1227
tp1228
sbg0
(g855
g2
Ntp1229
Rp1230
(dp1231
g859
g1219
sg861
I-2430709498974008157
sg862
S"Rule('045', 'ORMTP', 'IRMRP', [(Word([1]),'straight'), (Pos([1]),'IRMRP')])"
p1232
sg864
g967
sg866
g351
sg867
((g969
S'straight'
p1233
tp1234
(g975
g1219
tp1235
tp1236
sbtp1237
sb.