ccopy_reg
_reconstructor
p0
(cnltk.tag.brill
BrillTagger
p1
c__builtin__
object
p2
Ntp3
Rp4
(dp5
S'_initial_tagger'
p6
g0
(cnltk.tag.sequential
NgramTagger
p7
g2
Ntp8
Rp9
(dp10
S'_taggers'
p11
(lp12
g9
ag0
(g7
g2
Ntp13
Rp14
(dp15
g11
(lp16
g14
ag0
(cnltk.tag.sequential
TrigramTagger
p17
g2
Ntp18
Rp19
(dp20
g11
(lp21
g19
ag0
(cnltk.tag.sequential
BigramTagger
p22
g2
Ntp23
Rp24
(dp25
g11
(lp26
g24
ag0
(cnltk.tag.sequential
UnigramTagger
p27
g2
Ntp28
Rp29
(dp30
g11
(lp31
g29
asS'_n'
p32
I1
sS'_context_to_tag'
p33
(dp34
S'and'
p35
S'O'
p36
sS'right'
p37
S'ORMTP-ORMRP'
p38
sS'be'
p39
S'OBTP'
p40
sS'wall'
p41
S'IRMRP'
p42
sS'laptop'
p43
S'OBTP'
p44
sS'move'
p45
S'IRMRP'
p46
sS'back'
p47
S'FURTP-IRMRP'
p48
sS'walk'
p49
S'ORMTP'
p50
sS'nightstand'
p51
S'OBTP-FURTP'
p52
sS'at'
p53
S'FURTP-IRMRP'
p54
sS'directly'
p55
S'OBTP-FURTP-IRMRP'
p56
sS'in'
p57
S'OBTP-ORMTP'
p58
sS'go'
p59
S'ORMTP'
p60
sS'table'
p61
S'OBTP-FURTP'
p62
sS'find'
p63
S'OBTP'
p64
sS'are'
p65
S'FURTP-IRMRP'
p66
sS'halfway'
p67
S'IRMRP'
p68
sS'hit'
p69
g42
sS'again'
p70
S'IRMRP'
p71
sS"'ll"
p72
g64
sS'monitor'
p73
S'OBTP'
p74
sS'turn'
p75
S'ORMTP-ORMRP'
p76
sS'with'
p77
S'FURTP-FURRP'
p78
sS'top'
p79
S'OBTP-FURTP'
p80
sS'there'
p81
S'OBTP'
p82
sS'mug'
p83
g82
sS'couch'
p84
S'OBTP-FURTP-FURRP'
p85
sS'to'
p86
S'OBTP-FURTP-IRMRP'
p87
sS'behind'
p88
S'OBTP-FURTP-FURRP'
p89
sS'take'
p90
S'ORMTP-ORMRP'
p91
sS'forward'
p92
g60
sS'you'
p93
g64
sS'was'
p94
S'OBTP'
p95
sS'until'
p96
S'IRMRP'
p97
sS'fork'
p98
g40
sS'then'
p99
g36
sS'll'
p100
S'OBTP'
p101
sS'door'
p102
S'ORMTP'
p103
sS'bed'
p104
S'OBTP-FURTP-FURRP'
p105
sS'living'
p106
S'OBTP-ORMTP'
p107
sS'far'
p108
S'OBTP-FURTP-IRMRP'
p109
sS'a'
p110
S'ORMTP-ORMRP'
p111
sS'statue'
p112
S'OBTP'
p113
sS'front'
p114
S'OBTP-FURTP-FURRP'
p115
sS'end'
p116
S'OBTP-FURTP-IRMRP'
p117
sS'come'
p118
S'ORMTP'
p119
sS'by'
p120
S'OBTP-FURTP-FURRP'
p121
sS'is'
p122
g82
sS'case'
p123
g64
sS'on'
p124
S'OBTP-FURTP'
p125
sS'about'
p126
g68
sS'your'
p127
S'OBTP-FURTP-IRMRP'
p128
sS'room'
p129
S'OBTP-ORMTP'
p130
sS'ahead'
p131
S'OBTP-FURTP-IRMRP'
p132
sS'chairs'
p133
S'OBTP-FURTP-FURRP'
p134
sS'of'
p135
S'OBTP-FURTP-FURRP'
p136
sS'straight'
p137
S'ORMTP'
p138
sS'against'
p139
S'FURTP-IRMRP'
p140
sS'will'
p141
g40
sS'into'
p142
g119
sS'bedroom'
p143
S'OBTP-ORMTP'
p144
sS'enter'
p145
S'ORMTP'
p146
sS'through'
p147
g103
sS'the'
p148
g40
sS'glasses'
p149
g64
sS'side'
p150
S'OBTP-FURTP-IRMRP'
p151
sS'left'
p152
S'ORMTP-ORMRP'
p153
ssbasg32
I2
sg33
(dp154
((g80
tp155
g135
tp156
S'OBTP-FURTP'
p157
s((S'OBTP'
p158
tp159
S'the'
p160
tp161
g64
s((S'OBTP-ORMTP-ORMRP'
p162
tp163
S'at'
p164
tp165
S'OBTP-IRMRP'
p166
s((S'IRMRP'
p167
tp168
S'left'
p169
tp170
g167
s((g97
tp171
g65
tp172
g97
s((S'OBTP-IRMRP'
p173
tp174
g150
tp175
S'OBTP-IRMRP'
p176
s((g78
tp177
S'the'
p178
tp179
S'FURTP-FURRP'
p180
s((S'OBTP-FURTP-FURRP'
p181
tp182
S'at'
p183
tp184
S'OBTP-FURTP-IRMRP'
p185
s((g113
tp186
g131
tp187
S'OBTP-IRMRP'
p188
s((S'OBTP-FURTP-FURRP'
p189
tp190
S'right'
p191
tp192
S'OBTP-FURTP-FURRP'
p193
s((S'OBTP-ORMTP'
p194
tp195
S'to'
p196
tp197
S'OBTP-ORMTP-ORMRP'
p198
s((g158
tp199
S'of'
p200
tp201
g158
s((S'OBTP-ORMTP-ORMRP'
p202
tp203
S'ahead'
p204
tp205
S'OBTP-IRMRP'
p206
s((S'OBTP-IRMRP'
p207
tp208
g116
tp209
S'OBTP-IRMRP'
p210
s((g36
tp211
g49
tp212
g97
s((g36
tp213
S'turn'
p214
tp215
S'IRMRP'
p216
s((g146
tp217
S'on'
p218
tp219
S'ORMTP-ORMRP'
p220
s((S'OBTP-IRMRP'
p221
tp222
S'on'
p223
tp224
S'OBTP-FURTP'
p225
s((S'OBTP-FURTP'
p226
tp227
S'in'
p228
tp229
S'OBTP-FURTP-FURRP'
p230
s((S'FURTP'
p231
tp232
S'table'
p233
tp234
g231
s((S'OBTP-IRMRP'
p235
tp236
S'left'
p237
tp238
S'OBTP-IRMRP'
p239
s((S'OBTP-IRMRP'
p240
tp241
S'room'
p242
tp243
S'OBTP-IRMRP'
p244
s((g188
tp245
g86
tp246
S'OBTP-IRMRP'
p247
s((tS'take'
p248
tp249
S'ORMTP-ORMRP'
p250
s((g167
tp251
S'go'
p252
tp253
g42
s((S'FURTP-IRMRP'
p254
tp255
S'you'
p256
tp257
S'FURTP-IRMRP'
p258
s((g87
tp259
S'the'
p260
tp261
S'OBTP-FURTP-IRMRP'
p262
s((g119
tp263
S'the'
p264
tp265
g146
s((S'OBTP-ORMTP-ORMRP'
p266
tp267
S'left'
p268
tp269
S'OBTP-ORMTP-ORMRP'
p270
s((S'FURTP-IRMRP'
p271
tp272
S'straight'
p273
tp274
S'FURTP-IRMRP'
p275
s((g128
tp276
S'left'
p277
tp278
S'OBTP-FURTP-IRMRP'
p279
s((S'OBTP-FURTP-IRMRP'
p280
tp281
S'in'
p282
tp283
S'OBTP-FURTP-FURRP'
p284
s((S'ORMTP'
p285
tp286
S'go'
p287
tp288
S'IRMRP'
p289
s((S'OBTP-ORMTP-ORMRP'
p290
tp291
g55
tp292
S'OBTP-IRMRP'
p293
s((g180
tp294
g133
tp295
S'FURTP-FURRP'
p296
s((g285
tp297
g110
tp298
g285
s((g36
tp299
S'left'
p300
tp301
g71
s((S'OBTP-IRMRP'
p302
tp303
S'wall'
p304
tp305
S'OBTP-IRMRP'
p306
s((g136
tp307
S'the'
p308
tp309
S'OBTP-FURTP-FURRP'
p310
s((g58
tp311
S'the'
p312
tp313
S'OBTP-ORMTP'
p314
s((S'FURTP-IRMRP'
p315
tp316
S'forward'
p317
tp318
S'FURTP-IRMRP'
p319
s((S'OBTP-ORMTP-ORMRP'
p320
tp321
S'in'
p322
tp323
S'OBTP-IRMRP'
p324
s((g60
tp325
g35
tp326
g60
s((S'OBTP-FURTP-IRMRP'
p327
tp328
S'wall'
p329
tp330
S'OBTP-FURTP-IRMRP'
p331
s((S'OBTP-FURTP'
p332
tp333
S'with'
p334
tp335
S'OBTP-FURTP-FURRP'
p336
s((S'FURTP'
p337
tp338
S'to'
p339
tp340
g337
s((S'OBTP-FURTP-FURRP'
p341
tp342
S'left'
p343
tp344
S'OBTP-FURTP-FURRP'
p345
s((S'OBTP-FURTP'
p346
tp347
S'to'
p348
tp349
g87
s((g125
tp350
S'the'
p351
tp352
S'OBTP-FURTP'
p353
s((g97
tp354
g47
tp355
g97
s((g262
tp356
S'right'
p357
tp358
S'OBTP-FURTP-IRMRP'
p359
s((S'FURTP-IRMRP'
p360
tp361
S'wall'
p362
tp363
S'FURTP-IRMRP'
p364
s((S'OBTP-IRMRP'
p365
tp366
g108
tp367
S'OBTP-IRMRP'
p368
s((g97
tp369
g53
tp370
g97
s((g216
tp371
S'right'
p372
tp373
g216
s((g158
tp374
S'top'
p375
tp376
g158
s((g97
tp377
S'you'
p378
tp379
g97
s((g40
tp380
g124
tp381
g125
s((S'OBTP-IRMRP'
p382
tp383
S'back'
p384
tp385
S'OBTP-IRMRP'
p386
s((g97
tp387
S'straight'
p388
tp389
g97
s((S'OBTP-FURTP-FURRP'
p390
tp391
S'table'
p392
tp393
S'OBTP-FURTP-FURRP'
p394
s((S'ORMTP-ORMRP'
p395
tp396
g129
tp397
S'ORMTP-ORMRP'
p398
s((g210
tp399
S'of'
p400
tp401
S'OBTP-IRMRP'
p402
s((S'OBTP-IRMRP'
p403
tp404
S'halfway'
p405
tp406
S'OBTP-IRMRP'
p407
s((g54
tp408
S'the'
p409
tp410
S'FURTP-IRMRP'
p411
s((g146
tp412
S'room'
p413
tp414
g146
s((S'OBTP'
p415
tp416
g139
tp417
S'OBTP-IRMRP'
p418
s((S'OBTP-ORMTP'
p419
tp420
S'right'
p421
tp422
S'OBTP-ORMTP'
p423
s((g319
tp424
S'to'
p425
tp426
S'FURTP-IRMRP'
p427
s((g337
tp428
S'forward'
p429
tp430
g337
s((g337
tp431
S'the'
p432
tp433
g337
s((g36
tp434
S'go'
p435
tp436
S'IRMRP'
p437
s((S'ORMTP'
p438
tp439
S'then'
p440
tp441
g438
s((S'IRMTP'
p442
tp443
S'forward'
p444
tp445
g442
s((S'OBTP-IRMRP'
p446
tp447
S'the'
p448
tp449
S'OBTP-IRMRP'
p450
s((g398
tp451
S'on'
p452
tp453
S'ORMTP-ORMRP'
p454
s((g285
tp455
S'right'
p456
tp457
g285
s((g454
tp458
S'the'
p459
tp460
S'ORMTP-ORMRP'
p461
s((g247
tp462
g127
tp463
g235
s((g450
tp464
S'right'
p465
tp466
S'OBTP-IRMRP'
p467
s((S'OBTP-ORMTP-ORMRP'
p468
tp469
S'the'
p470
tp471
S'OBTP-ORMTP-ORMRP'
p472
s((g472
tp473
S'right'
p474
tp475
g290
s((S'OBTP-FURTP'
p476
tp477
S'at'
p478
tp479
S'OBTP-FURTP-IRMRP'
p480
s((g68
tp481
S'turn'
p482
tp483
g167
s((g270
tp484
S'on'
p485
tp486
S'OBTP-FURTP'
p487
s((g130
tp488
S'on'
p489
tp490
g468
s((S'OBTP-FURTP'
p491
tp492
S'against'
p493
tp494
S'OBTP-FURTP-IRMRP'
p495
s((S'ORMTP-ORMRP'
p496
tp497
S'go'
p498
tp499
S'IRMRP'
p500
s((S'OBTP-ORMTP-ORMRP'
p501
tp502
S'about'
p503
tp504
g403
s((g68
tp505
g57
tp506
g68
s((g500
tp507
S'forward'
p508
tp509
g500
s((g407
tp510
S'in'
p511
tp512
g221
s((g275
tp513
S'until'
p514
tp515
g254
s((g97
tp516
S'the'
p517
tp518
g97
s((S'OBTP-FURTP'
p519
tp520
S'back'
p521
tp522
S'OBTP-FURTP'
p523
s((S'ORMTP-ORMRP'
p524
tp525
S'and'
p526
tp527
g36
ssbag29
asg32
I3
sg33
(dp528
((g266
g270
tp529
g485
tp530
g487
s((g66
g54
tp531
g409
tp532
g231
s((S'ORMTP-ORMRP'
p533
g36
tp534
S'walk'
p535
tp536
g97
s((g407
g221
tp537
g223
tp538
g225
s((S'ORMTP-ORMRP'
p539
g36
tp540
S'go'
p541
tp542
g437
s((S'OBTP-ORMTP'
p543
S'OBTP-ORMTP'
p544
tp545
S'to'
p546
tp547
g198
s((g119
g119
tp548
g264
tp549
S'ORMTP'
p550
s((S'IRMRP'
p551
g551
tp552
S'go'
p553
tp554
g42
s((g158
g158
tp555
g160
tp556
g64
s((g40
g40
tp557
g124
tp558
g125
s((S'ORMTP-ORMRP'
p559
g524
tp560
g526
tp561
g36
s((g524
S'ORMTP-ORMRP'
p562
tp563
S'the'
p564
tp565
S'OBTP'
p566
s((g419
g423
tp567
S'on'
p568
tp569
g468
s((S'IRMRP'
p570
g570
tp571
S'you'
p572
tp573
g97
s((S'ORMTP'
p574
g36
tp575
S'walk'
p576
tp577
S'FURTP-IRMRP'
p578
s((tg248
tp579
g250
s((S'ORMTP-ORMRP'
p580
S'ORMTP-ORMRP'
p581
tp582
S'go'
p583
tp584
g500
s((S'OBTP-ORMTP-ORMRP'
p585
S'OBTP-ORMTP-ORMRP'
p586
tp587
S'at'
p588
tp589
g166
s((g50
g50
tp590
S'and'
p591
tp592
g60
s((S'OBTP-FURTP'
p593
g346
tp594
g348
tp595
g87
ssbag24
ag29
asg32
I4
sg33
(dp596
((S'ORMTP'
p597
g559
g524
tp598
g526
tp599
g36
s((S'ORMTP'
p600
g600
g36
tp601
S'walk'
p602
tp603
g578
s((g395
g398
g454
tp604
g459
tp605
g566
s((g403
g407
g221
tp606
g223
tp607
g225
s((g570
g570
g570
tp608
g572
tp609
g97
s((g119
g119
tp610
g264
tp611
g550
s((S'OBTP-ORMTP'
p612
g419
g423
tp613
g568
tp614
g468
s((S'ORMTP-ORMRP'
p615
g539
g36
tp616
g541
tp617
g437
s((g50
g50
g50
tp618
g591
tp619
g36
s((S'OBTP-FURTP'
p620
g593
g346
tp621
g348
tp622
g87
s((S'ORMTP-ORMRP'
p623
g533
g36
tp624
g535
tp625
g97
s((g40
g40
g40
tp626
g124
tp627
g125
s((S'ORMTP-ORMRP'
p628
g580
g581
tp629
g583
tp630
g500
s((g158
S'OBTP-FURTP'
p631
S'OBTP-FURTP'
p632
tp633
S'to'
p634
tp635
S'OBTP-FURTP-FURRP'
p636
s((g158
g158
g158
tp637
g160
tp638
g64
s((S'OBTP-ORMTP-ORMRP'
p639
g585
g586
tp640
g588
tp641
g166
s((g36
g551
g551
tp642
g553
tp643
S'IRMRP'
p644
s((S'OBTP-ORMTP'
p645
g543
g544
tp646
g546
tp647
g198
s((g198
g266
g270
tp648
g485
tp649
g487
s((tg248
tp650
g250
ssbag19
ag24
ag29
asg32
I5
sg33
(dp651
((S'ORMTP'
p652
g623
g533
g36
tp653
g535
tp654
g97
s((g40
g40
g40
g40
tp655
g124
tp656
g125
s((S'OBTP-ORMTP-ORMRP'
p657
S'OBTP-FURTP'
p658
S'OBTP-FURTP'
p659
S'OBTP-FURTP'
p660
tp661
S'to'
p662
tp663
S'OBTP-FURTP-IRMRP'
p664
s((S'ORMTP'
p665
g615
g539
g36
tp666
g541
tp667
g437
s((S'OBTP-ORMTP'
p668
g639
g585
g586
tp669
g588
tp670
g166
s((g158
g158
g158
g158
tp671
g160
tp672
g631
s((g119
g119
tp673
g264
tp674
g550
s((g194
g198
g266
g270
tp675
g485
tp676
g487
s((S'ORMTP'
p677
g628
g580
g581
tp678
g583
tp679
g500
s((g36
g36
g551
g551
tp680
g553
tp681
g644
s((S'OBTP-FURTP'
p682
g620
g593
g346
tp683
g348
tp684
S'OBTP-FURTP-FURRP'
p685
s((g570
g570
g570
g570
tp686
g572
tp687
g42
s((g544
g612
g419
g423
tp688
g568
tp689
S'OBTP-ORMTP-ORMRP'
p690
s((g119
g395
g398
g454
tp691
g459
tp692
g566
s((S'OBTP'
p693
S'OBTP-FURTP'
p694
S'OBTP-FURTP'
p695
S'OBTP-FURTP'
p696
tp697
S'to'
p698
tp699
g87
s((S'OBTP-ORMTP'
p700
g645
g543
g544
tp701
g546
tp702
S'OBTP-ORMTP-ORMRP'
p703
s((g600
g600
g600
g36
tp704
g602
tp705
g578
s((g597
g597
g559
g524
tp706
g526
tp707
g36
s((g501
g403
g407
g221
tp708
g223
tp709
S'OBTP-IRMRP'
p710
s((tg248
tp711
g250
ssbsS'_rules'
p712
(g0
(cnltk.tag.brill
ProximateWordsRule
p713
g2
Ntp714
Rp715
(dp716
S'replacement_tag'
p717
S'OBTP-FURTP-FURRP'
p718
sS'original_tag'
p719
g279
sS'_ProximateTokensRule__hash'
p720
I-570462936146620881
sS'_conditions'
p721
((I1
I10
S'bed'
p722
tp723
tp724
sS'_ProximateTokensRule__repr'
p725
S'<ProximateWordsRule: OBTP-FURTP-IRMRP->OBTP-FURTP-FURRP if bed in 1...10>'
p726
sbg0
(cnltk.tag.brill
ProximateTagsRule
p727
g2
Ntp728
Rp729
(dp730
g717
S'FURTP-IRMRP'
p731
sg719
g97
sg720
I-4075609212465338052
sg721
((I1
I10
g48
tp732
tp733
sg725
S'<ProximateTagsRule: IRMRP->FURTP-IRMRP if FURTP-IRMRP in 1...10>'
p734
sbg0
(g727
g2
Ntp735
Rp736
(dp737
g717
S'FURTP-IRMRP'
p738
sg719
g331
sg720
I936096692409794144
sg721
((I1
I10
g36
tp739
tp740
sg725
S'<ProximateTagsRule: OBTP-FURTP-IRMRP->FURTP-IRMRP if O in 1...10>'
p741
sbg0
(g727
g2
Ntp742
Rp743
(dp744
g717
S'OBTP-IRMRP'
p745
sg719
g353
sg720
I-1281410973686425450
sg721
((I1
I10
g153
tp746
tp747
sg725
S'<ProximateTagsRule: OBTP-FURTP->OBTP-IRMRP if ORMTP-ORMRP in 1...10>'
p748
sbg0
(g727
g2
Ntp749
Rp750
(dp751
g717
S'FURTP'
p752
sg719
g738
sg720
I148214585574052316
sg721
((I-1
I-1
g738
tp753
(I1
I1
g62
tp754
tp755
sg725
S'<ProximateTagsRule: FURTP-IRMRP->FURTP if FURTP-IRMRP in -1...-1 and OBTP-FURTP in 1...1>'
p756
sbg0
(g727
g2
Ntp757
Rp758
(dp759
g717
S'FURTP'
p760
sg719
g62
sg720
I-1589396655273437161
sg721
((I-1
I-1
g752
tp761
tp762
sg725
S'<ProximateTagsRule: OBTP-FURTP->FURTP if FURTP in -1...-1>'
p763
sbg0
(g727
g2
Ntp764
Rp765
(dp766
g717
g173
sg719
g153
sg720
I1673408501578158005
sg721
((I-10
I-1
g74
tp767
tp768
sg725
S'<ProximateTagsRule: ORMTP-ORMRP->OBTP-IRMRP if OBTP in -10...-1>'
p769
sbg0
(g727
g2
Ntp770
Rp771
(dp772
g717
S'FURTP-IRMRP'
p773
sg719
g644
sg720
I7320258699745173262
sg721
((I1
I3
g752
tp774
tp775
sg725
S'<ProximateTagsRule: IRMRP->FURTP-IRMRP if FURTP in 1...3>'
p776
sbg0
(g727
g2
Ntp777
Rp778
(dp779
g717
S'FURTP'
p780
sg719
g773
sg720
I-3020108082622022347
sg721
((I1
I10
g336
tp781
tp782
sg725
S'<ProximateTagsRule: FURTP-IRMRP->FURTP if OBTP-FURTP-FURRP in 1...10>'
p783
sbg0
(g727
g2
Ntp784
Rp785
(dp786
g717
S'FURTP-FURRP'
p787
sg719
g310
sg720
I3496731960190048531
sg721
((I-10
I-1
g752
tp788
tp789
sg725
S'<ProximateTagsRule: OBTP-FURTP-FURRP->FURTP-FURRP if FURTP in -10...-1>'
p790
sbg0
(g713
g2
Ntp791
Rp792
(dp793
g717
S'OBTP-FURTP-FURRP'
p794
sg719
g279
sg720
I-5060317316625951622
sg721
((I1
I10
S'table'
p795
tp796
tp797
sg725
S'<ProximateWordsRule: OBTP-FURTP-IRMRP->OBTP-FURTP-FURRP if table in 1...10>'
p798
sbg0
(g713
g2
Ntp799
Rp800
(dp801
g717
S'OBTP-FURTP'
p802
sg719
g173
sg720
I8234553531347330536
sg721
((I1
I2
S'table'
p803
tp804
tp805
sg725
S'<ProximateWordsRule: OBTP-IRMRP->OBTP-FURTP if table in 1...2>'
p806
sbg0
(g727
g2
Ntp807
Rp808
(dp809
g717
g158
sg719
g42
sg720
I-5808476677451634217
sg721
((I-1
I-1
g68
tp810
(I1
I1
g64
tp811
tp812
sg725
S'<ProximateTagsRule: IRMRP->OBTP if IRMRP in -1...-1 and OBTP in 1...1>'
p813
sbg0
(g727
g2
Ntp814
Rp815
(dp816
g717
S'OBTP-FURTP'
p817
sg719
g566
sg720
I750524775543688026
sg721
((I1
I2
g230
tp818
tp819
sg725
S'<ProximateTagsRule: OBTP->OBTP-FURTP if OBTP-FURTP-FURRP in 1...2>'
p820
sbtp821
sb.