ccopy_reg
_reconstructor
p0
(cnltk.tag.brill
BrillTagger
p1
c__builtin__
object
p2
Ntp3
Rp4
(dp5
S'_initial_tagger'
p6
g0
(cnltk.tag.sequential
NgramTagger
p7
g2
Ntp8
Rp9
(dp10
S'_taggers'
p11
(lp12
g9
ag0
(g7
g2
Ntp13
Rp14
(dp15
g11
(lp16
g14
ag0
(cnltk.tag.sequential
TrigramTagger
p17
g2
Ntp18
Rp19
(dp20
g11
(lp21
g19
ag0
(cnltk.tag.sequential
BigramTagger
p22
g2
Ntp23
Rp24
(dp25
g11
(lp26
g24
ag0
(cnltk.tag.sequential
UnigramTagger
p27
g2
Ntp28
Rp29
(dp30
g11
(lp31
g29
asS'_n'
p32
I1
sS'_context_to_tag'
p33
(dp34
S'and'
p35
S'O'
p36
sS'right'
p37
S'OBTP-FURTP-IRMRP'
p38
sS'office'
p39
S'ORMTP'
p40
sS'be'
p41
S'OBTP'
p42
sS'wall'
p43
S'IRMRP'
p44
sS'is'
p45
S'OBTP'
p46
sS'bedroom'
p47
S'ORMTP'
p48
sS'back'
p49
S'OBTP-FURTP'
p50
sS'walk'
p51
S'IRMRP'
p52
sS'against'
p53
S'FURTP-IRMRP'
p54
sS'nightstand'
p55
S'OBTP-FURTP'
p56
sS'are'
p57
S'FURTP-IRMRP'
p58
sS'directly'
p59
S'OBTP-FURTP-IRMRP'
p60
sS'in'
p61
S'OBTP-ORMTP'
p62
sS'go'
p63
S'ORMTP'
p64
sS'table'
p65
S'OBTP-FURTP'
p66
sS'chair'
p67
S'OBTP-FURTP-FURRP'
p68
sS'find'
p69
S'OBTP'
p70
sS'halfway'
p71
S'IRMRP'
p72
sS'living'
p73
S'ORMTP'
p74
sS'end'
p75
S'OBTP-IRMRP'
p76
sS'monitor'
p77
S'OBTP'
p78
sS'top'
p79
S'OBTP-FURTP'
p80
sS'there'
p81
S'OBTP'
p82
sS'mug'
p83
S'OBTP'
p84
sS'couch'
p85
S'OBTP-FURTP-FURRP'
p86
sS'to'
p87
g64
sS'behind'
p88
S'OBTP-FURTP-FURRP'
p89
sS'forward'
p90
S'IRMRP'
p91
sS'you'
p92
g70
sS'was'
p93
S'OBTP'
p94
sS'laptop'
p95
S'OBTP'
p96
sS'side'
p97
S'OBTP-FURTP-IRMRP'
p98
sS'fork'
p99
g46
sS'then'
p100
g36
sS'move'
p101
S'IRMRP'
p102
sS'hit'
p103
g44
sS'again'
p104
S'IRMRP'
p105
sS'far'
p106
S'OBTP-FURTP-IRMRP'
p107
sS'left'
p108
S'OBTP-FURTP-FURRP'
p109
sS'studio'
p110
g64
sS'statue'
p111
S'OBTP'
p112
sS'front'
p113
S'OBTP-FURTP-FURRP'
p114
sS'with'
p115
S'OBTP-FURTP-FURRP'
p116
sS'by'
p117
S'OBTP-FURTP-FURRP'
p118
sS'case'
p119
S'OBTP'
p120
sS'on'
p121
S'OBTP-FURTP'
p122
sS'about'
p123
g72
sS'your'
p124
S'OBTP-FURTP-IRMRP'
p125
sS'room'
p126
g74
sS'ahead'
p127
S'OBTP-FURTP-IRMRP'
p128
sS'chairs'
p129
S'OBTP-FURTP-FURRP'
p130
sS'of'
p131
S'OBTP-FURTP-FURRP'
p132
sS'straight'
p133
g52
sS'bed'
p134
S'OBTP-FURTP-FURRP'
p135
sS'until'
p136
g52
sS'will'
p137
g42
sS'turn'
p138
S'IRMRP'
p139
sS'the'
p140
g46
sS'glasses'
p141
g120
sS'll'
p142
S'OBTP'
p143
sS'at'
p144
S'FURTP-IRMRP'
p145
ssbasg32
I2
sg33
(dp146
((g80
tp147
S'of'
p148
tp149
S'OBTP-FURTP'
p150
s((S'OBTP-ORMTP-ORMRP'
p151
tp152
g144
tp153
S'OBTP-IRMRP'
p154
s((S'IRMRP'
p155
tp156
S'left'
p157
tp158
g155
s((g52
tp159
g57
tp160
g52
s((g60
tp161
S'to'
p162
tp163
S'OBTP-FURTP-IRMRP'
p164
s((S'OBTP-IRMRP'
p165
tp166
g97
tp167
S'OBTP-IRMRP'
p168
s((S'FURTP-FURRP'
p169
tp170
S'the'
p171
tp172
S'FURTP-FURRP'
p173
s((S'OBTP-FURTP-FURRP'
p174
tp175
S'at'
p176
tp177
S'OBTP-FURTP-IRMRP'
p178
s((S'OBTP'
p179
tp180
S'ahead'
p181
tp182
S'OBTP-IRMRP'
p183
s((S'OBTP-FURTP-FURRP'
p184
tp185
S'right'
p186
tp187
S'OBTP-FURTP-FURRP'
p188
s((S'OBTP-ORMTP'
p189
tp190
S'to'
p191
tp192
S'OBTP-ORMTP-ORMRP'
p193
s((S'OBTP-ORMTP-ORMRP'
p194
tp195
g127
tp196
S'OBTP-IRMRP'
p197
s((g36
tp198
S'walk'
p199
tp200
S'IRMRP'
p201
s((S'OBTP-IRMRP'
p202
tp203
S'on'
p204
tp205
S'OBTP-FURTP'
p206
s((S'FURTP-IRMRP'
p207
tp208
S'with'
p209
tp210
S'FURTP-FURRP'
p211
s((S'OBTP-FURTP'
p212
tp213
S'in'
p214
tp215
S'OBTP-FURTP-FURRP'
p216
s((S'OBTP-FURTP-IRMRP'
p217
tp218
S'left'
p219
tp220
S'OBTP-FURTP-IRMRP'
p221
s((S'OBTP-IRMRP'
p222
tp223
S'left'
p224
tp225
S'OBTP-IRMRP'
p226
s((S'OBTP-IRMRP'
p227
tp228
S'room'
p229
tp230
S'OBTP-IRMRP'
p231
s((S'OBTP-IRMRP'
p232
tp233
g87
tp234
S'OBTP-IRMRP'
p235
s((g155
tp236
S'go'
p237
tp238
g44
s((S'FURTP-IRMRP'
p239
tp240
S'you'
p241
tp242
S'FURTP-IRMRP'
p243
s((g164
tp244
S'the'
p245
tp246
S'OBTP-FURTP-IRMRP'
p247
s((g64
tp248
S'the'
p249
tp250
g64
s((S'OBTP-ORMTP-ORMRP'
p251
tp252
g108
tp253
g194
s((S'FURTP-IRMRP'
p254
tp255
S'straight'
p256
tp257
S'FURTP-IRMRP'
p258
s((S'FURTP'
p259
tp260
S'table'
p261
tp262
g259
s((S'OBTP-ORMTP'
p263
tp264
g126
tp265
S'OBTP-ORMTP'
p266
s((S'OBTP-ORMTP'
p267
tp268
S'directly'
p269
tp270
S'OBTP-IRMRP'
p271
s((S'ORMTP'
p272
tp273
S'go'
p274
tp275
g91
s((S'OBTP-ORMTP-ORMRP'
p276
tp277
g59
tp278
g232
s((g173
tp279
S'chairs'
p280
tp281
S'FURTP-FURRP'
p282
s((g36
tp283
S'left'
p284
tp285
g105
s((S'OBTP-IRMRP'
p286
tp287
S'wall'
p288
tp289
S'OBTP-IRMRP'
p290
s((g132
tp291
S'the'
p292
tp293
S'OBTP-FURTP-FURRP'
p294
s((g62
tp295
S'the'
p296
tp297
g263
s((S'FURTP-IRMRP'
p298
tp299
S'forward'
p300
tp301
S'FURTP-IRMRP'
p302
s((S'OBTP-ORMTP-ORMRP'
p303
tp304
S'in'
p305
tp306
S'OBTP-IRMRP'
p307
s((g221
tp308
g43
tp309
S'OBTP-FURTP-IRMRP'
p310
s((S'FURTP'
p311
tp312
S'to'
p313
tp314
g311
s((tS'walk'
p315
tp316
S'FURTP-IRMRP'
p317
s((S'OBTP-ORMTP'
p318
tp319
g73
tp320
S'OBTP-ORMTP'
p321
s((S'OBTP-FURTP'
p322
tp323
S'to'
p324
tp325
S'OBTP-FURTP-IRMRP'
p326
s((g122
tp327
S'the'
p328
tp329
S'OBTP-FURTP'
p330
s((g52
tp331
S'back'
p332
tp333
g52
s((S'FURTP-IRMRP'
p334
tp335
S'wall'
p336
tp337
S'FURTP-IRMRP'
p338
s((S'OBTP-IRMRP'
p339
tp340
g106
tp341
S'OBTP-IRMRP'
p342
s((S'OBTP'
p343
tp344
S'directly'
p345
tp346
S'OBTP-IRMRP'
p347
s((S'OBTP-ORMTP'
p348
tp349
S'about'
p350
tp351
S'OBTP-IRMRP'
p352
s((g52
tp353
S'at'
p354
tp355
g52
s((S'OBTP-ORMTP'
p356
tp357
g47
tp358
S'OBTP-ORMTP'
p359
s((g139
tp360
S'right'
p361
tp362
g139
s((S'OBTP'
p363
tp364
S'in'
p365
tp366
g62
s((g52
tp367
S'you'
p368
tp369
g52
s((g42
tp370
S'on'
p371
tp372
S'OBTP-FURTP'
p373
s((S'OBTP-IRMRP'
p374
tp375
g49
tp376
S'OBTP-IRMRP'
p377
s((S'OBTP-FURTP-FURRP'
p378
tp379
S'table'
p380
tp381
S'OBTP-FURTP-FURRP'
p382
s((g76
tp383
S'of'
p384
tp385
S'OBTP-IRMRP'
p386
s((S'OBTP-IRMRP'
p387
tp388
g71
tp389
S'OBTP-IRMRP'
p390
s((S'FURTP-IRMRP'
p391
tp392
S'the'
p393
tp394
g259
s((S'FURTP-FURRP'
p395
tp396
g67
tp397
S'FURTP-FURRP'
p398
s((S'OBTP'
p399
tp400
S'against'
p401
tp402
S'OBTP-IRMRP'
p403
s((g311
tp404
S'with'
p405
tp406
g169
s((g302
tp407
S'to'
p408
tp409
g391
s((g311
tp410
S'forward'
p411
tp412
g311
s((g311
tp413
S'the'
p414
tp415
g311
s((g36
tp416
S'go'
p417
tp418
S'IRMRP'
p419
s((S'OBTP-FURTP-IRMRP'
p420
tp421
S'end'
p422
tp423
S'OBTP-FURTP-IRMRP'
p424
s((S'IRMTP'
p425
tp426
S'forward'
p427
tp428
g425
s((g235
tp429
S'the'
p430
tp431
S'OBTP-IRMRP'
p432
s((S'OBTP-ORMTP'
p433
tp434
S'ahead'
p435
tp436
S'OBTP-IRMRP'
p437
s((S'OBTP-IRMRP'
p438
tp439
g124
tp440
S'OBTP-IRMRP'
p441
s((g432
tp442
S'right'
p443
tp444
S'OBTP-IRMRP'
p445
s((S'OBTP-ORMTP-ORMRP'
p446
tp447
S'the'
p448
tp449
S'OBTP-ORMTP-ORMRP'
p450
s((g450
tp451
g37
tp452
g276
s((S'FURTP-IRMRP'
p453
tp454
S'back'
p455
tp456
S'FURTP-IRMRP'
p457
s((S'OBTP-FURTP'
p458
tp459
S'at'
p460
tp461
S'OBTP-FURTP-IRMRP'
p462
s((S'OBTP-ORMTP-ORMRP'
p463
tp464
S'on'
p465
tp466
g122
s((g266
tp467
g121
tp468
S'OBTP-FURTP'
p469
s((S'OBTP-FURTP'
p470
tp471
g53
tp472
S'OBTP-FURTP-IRMRP'
p473
s((S'OBTP'
p474
tp475
S'about'
p476
tp477
S'OBTP-IRMRP'
p478
s((S'OBTP-ORMTP'
p479
tp480
S'at'
p481
tp482
S'OBTP-IRMRP'
p483
s((S'OBTP-ORMTP-ORMRP'
p484
tp485
g123
tp486
g387
s((g72
tp487
S'in'
p488
tp489
g72
s((g390
tp490
S'in'
p491
tp492
g202
s((g258
tp493
S'until'
p494
tp495
g239
s((g52
tp496
S'the'
p497
tp498
g52
s((S'OBTP'
p499
tp500
S'at'
p501
tp502
S'OBTP-IRMRP'
p503
s((S'OBTP-FURTP-IRMRP'
p504
tp505
S'in'
p506
tp507
S'OBTP-FURTP-FURRP'
p508
ssbag29
asg32
I3
sg33
(dp509
((S'OBTP-ORMTP-ORMRP'
p510
g463
tp511
g465
tp512
g122
s((S'ORMTP'
p513
g513
tp514
S'go'
p515
tp516
g91
s((S'ORMTP'
p517
g36
tp518
S'go'
p519
tp520
g419
s((S'OBTP-FURTP'
p521
S'OBTP-FURTP'
p522
tp523
S'to'
p524
tp525
g326
s((g390
g202
tp526
g204
tp527
g206
s((g64
g64
tp528
S'the'
p529
tp530
g64
s((S'OBTP'
p531
g531
tp532
S'at'
p533
tp534
g503
s((S'IRMRP'
p535
g535
tp536
S'go'
p537
tp538
g44
s((g42
g42
tp539
g371
tp540
g373
s((g363
g363
tp541
g365
tp542
g62
s((S'IRMRP'
p543
g543
tp544
S'you'
p545
tp546
g52
s((g36
tp547
S'go'
p548
tp549
S'IRMRP'
p550
s((g263
g266
tp551
g121
tp552
g469
s((S'FURTP'
p553
g54
tp554
S'the'
p555
tp556
g334
s((S'ORMTP'
p557
g36
tp558
g199
tp559
g201
s((g36
tp560
S'walk'
p561
tp562
S'FURTP-IRMRP'
p563
s((S'OBTP-ORMTP-ORMRP'
p564
S'OBTP-ORMTP-ORMRP'
p565
tp566
S'at'
p567
tp568
g154
ssbag24
ag29
asg32
I4
sg33
(dp569
((g517
g517
g36
tp570
g519
tp571
g419
s((g387
g390
g202
tp572
g204
tp573
g206
s((g557
g557
g36
tp574
g199
tp575
g201
s((g363
g363
g363
tp576
g365
tp577
g62
s((g62
g263
g266
tp578
g121
tp579
g469
s((g531
g531
g531
tp580
g533
tp581
g503
s((S'OBTP-FURTP'
p582
g521
g522
tp583
g524
tp584
g326
s((g543
g543
g543
tp585
g545
tp586
g52
s((g42
g42
g42
tp587
g371
tp588
g373
s((g36
tp589
g548
tp590
g550
s((g513
g513
g513
tp591
g515
tp592
g91
s((S'OBTP-ORMTP-ORMRP'
p593
g564
g565
tp594
g567
tp595
g154
s((g36
g535
g535
tp596
g537
tp597
g311
s((S'OBTP-ORMTP-ORMRP'
p598
g510
g463
tp599
g465
tp600
g122
s((g64
g64
g64
tp601
g529
tp602
g42
ssbag19
ag24
ag29
asg32
I5
sg33
(dp603
((g557
g557
g557
g36
tp604
g199
tp605
g201
s((g42
g42
g42
g42
tp606
g371
tp607
g373
s((S'OBTP-ORMTP'
p608
g598
g510
g463
tp609
g465
tp610
g122
s((g513
g513
g513
g513
tp611
g515
tp612
g91
s((S'ORMTP'
p613
g363
g363
g363
tp614
g365
tp615
S'OBTP-IRMRP'
p616
s((S'OBTP-ORMTP-ORMRP'
p617
g582
g521
g522
tp618
g524
tp619
g326
s((g36
g36
S'IRMRP'
p620
g620
tp621
S'go'
p622
tp623
g311
s((g46
g62
g263
g266
tp624
g121
tp625
g446
s((S'OBTP-FURTP'
p626
S'OBTP-FURTP'
p627
S'OBTP-FURTP'
p628
S'OBTP-FURTP'
p629
tp630
S'to'
p631
tp632
S'OBTP-FURTP-FURRP'
p633
s((g474
g478
S'OBTP-IRMRP'
p634
S'OBTP-IRMRP'
p635
tp636
S'on'
p637
tp638
S'OBTP-FURTP'
p639
s((S'ORMTP'
p640
S'OBTP'
p641
g641
g641
tp642
S'on'
p643
tp644
S'OBTP-FURTP'
p645
s((g484
g387
g390
g202
tp646
g204
tp647
g206
s((S'OBTP-ORMTP'
p648
g593
g564
g565
tp649
g567
tp650
g154
s((g543
g543
g543
g543
tp651
g545
tp652
g44
s((S'OBTP'
p653
g653
g653
tp654
S'at'
p655
tp656
S'OBTP-FURTP'
p657
s((S'ORMTP'
p658
g531
g531
g531
tp659
g533
tp660
g503
s((S'OBTP-ORMTP'
p661
S'OBTP-FURTP'
p662
S'OBTP-FURTP'
p663
S'OBTP-FURTP'
p664
tp665
S'to'
p666
tp667
S'OBTP-FURTP-FURRP'
p668
s((g517
g517
g517
g36
tp669
g519
tp670
g419
s((g348
g352
S'OBTP-IRMRP'
p671
S'OBTP-IRMRP'
p672
tp673
S'on'
p674
tp675
S'OBTP-FURTP'
p676
s((S'OBTP-ORMTP'
p677
S'OBTP-ORMTP'
p678
S'OBTP-ORMTP'
p679
S'OBTP-ORMTP'
p680
tp681
S'on'
p682
tp683
g469
s((g36
tp684
g548
tp685
g550
s((S'OBTP'
p686
S'OBTP-FURTP'
p687
S'OBTP-FURTP'
p688
S'OBTP-FURTP'
p689
tp690
S'to'
p691
tp692
S'OBTP-FURTP-IRMRP'
p693
ssbsS'_training_stats'
p694
(dp695
S'min_score'
p696
I4
sS'finalacc'
p697
F0.9869444444444444
sS'min_acc'
p698
NsS'tokencount'
p699
I3600
sS'initialacc'
p700
F0.9133333333333333
sS'templatecount'
p701
I24
sS'sequencecount'
p702
I206
sS'initialerrors'
p703
I312
sS'finalerrors'
p704
I47
sS'rulescores'
p705
(lp706
I48
aI40
aI27
aI24
aI20
aI10
aI10
aI15
aI10
aI9
aI8
aI9
aI6
aI5
aI5
aI5
aI5
aI5
aI4
assS'_rules'
p707
(g0
(cnltk.tbl.rule
Rule
p708
g2
Ntp709
Rp710
(dp711
S'replacement_tag'
p712
S'OBTP-FURTP-FURRP'
p713
sS'_Rule__hash'
p714
I-2655651008321126920
sS'_Rule__repr'
p715
S"Rule('040', 'OBTP-FURTP-IRMRP', 'OBTP-FURTP-FURRP', [(Word([1, 2]),'of')])"
p716
sS'templateid'
p717
S'040'
p718
sS'original_tag'
p719
g221
sS'_conditions'
p720
((g0
(cnltk.tag.brill
Word
p721
g2
Ntp722
Rp723
(dp724
S'positions'
p725
(I1
I2
tp726
sS'PROPERTY_NAME'
p727
S'Word'
p728
sbS'of'
p729
tp730
tp731
sbg0
(g708
g2
Ntp732
Rp733
(dp734
g712
S'OBTP-IRMRP'
p735
sg714
I-2636029429067817874
sg715
S"Rule('040', 'OBTP-FURTP', 'OBTP-IRMRP', [(Word([1, 2]),'right')])"
p736
sg717
g718
sg719
g330
sg720
((g723
S'right'
p737
tp738
tp739
sbg0
(g708
g2
Ntp740
Rp741
(dp742
g712
S'OBTP-IRMRP'
p743
sg714
I3277015333397869816
sg715
S"Rule('030', 'OBTP-FURTP-IRMRP', 'OBTP-IRMRP', [(Pos([-3, -2, -1]),'OBTP-IRMRP')])"
p744
sg717
S'030'
p745
sg719
g38
sg720
((g0
(cnltk.tag.brill
Pos
p746
g2
Ntp747
Rp748
(dp749
g725
(I-3
I-2
I-1
tp750
sg727
S'Pos'
p751
sbg735
tp752
tp753
sbg0
(g708
g2
Ntp754
Rp755
(dp756
g712
S'OBTP-FURTP-FURRP'
p757
sg714
I-8399689622235629116
sg715
S"Rule('032', 'OBTP-FURTP-IRMRP', 'OBTP-FURTP-FURRP', [(Pos([-1]),'OBTP-FURTP'), (Pos([1]),'OBTP-FURTP-FURRP')])"
p758
sg717
S'032'
p759
sg719
g693
sg720
((g0
(g746
g2
Ntp760
Rp761
(dp762
g725
(I-1
tp763
sg727
g751
sbg56
tp764
(g0
(g746
g2
Ntp765
Rp766
(dp767
g725
(I1
tp768
sg727
g751
sbg713
tp769
tp770
sbg0
(g708
g2
Ntp771
Rp772
(dp773
g712
S'OBTP-FURTP'
p774
sg714
I-5278962363786006603
sg715
S"Rule('039', 'OBTP-ORMTP-ORMRP', 'OBTP-FURTP', [(Word([-2, -1]),'bedroom')])"
p775
sg717
S'039'
p776
sg719
g450
sg720
((g0
(g721
g2
Ntp777
Rp778
(dp779
g725
(I-2
I-1
tp780
sg727
g728
sbS'bedroom'
p781
tp782
tp783
sbg0
(g708
g2
Ntp784
Rp785
(dp786
g712
S'FURTP-IRMRP'
p787
sg714
I-4119106530315795426
sg715
S"Rule('029', 'OBTP-FURTP-IRMRP', 'FURTP-IRMRP', [(Pos([1, 2]),'OBTP-FURTP')])"
p788
sg717
S'029'
p789
sg719
g247
sg720
((g0
(g746
g2
Ntp790
Rp791
(dp792
g725
(I1
I2
tp793
sg727
g751
sbg50
tp794
tp795
sbg0
(g708
g2
Ntp796
Rp797
(dp798
g712
S'FURTP-IRMRP'
p799
sg714
I6274420696384504104
sg715
S"Rule('031', 'IRMRP', 'FURTP-IRMRP', [(Pos([1, 2, 3]),'OBTP-FURTP')])"
p800
sg717
S'031'
p801
sg719
g52
sg720
((g0
(g746
g2
Ntp802
Rp803
(dp804
g725
(I1
I2
I3
tp805
sg727
g751
sbg66
tp806
tp807
sbg0
(g708
g2
Ntp808
Rp809
(dp810
g712
S'FURTP-IRMRP'
p811
sg714
I-2747884488264844764
sg715
S"Rule('031', 'IRMRP', 'FURTP-IRMRP', [(Pos([1, 2, 3]),'FURTP-IRMRP')])"
p812
sg717
g801
sg719
g52
sg720
((g803
g799
tp813
tp814
sbg0
(g708
g2
Ntp815
Rp816
(dp817
g712
S'OBTP-IRMRP'
p818
sg714
I7620918947497174376
sg715
S"Rule('040', 'OBTP-FURTP', 'OBTP-IRMRP', [(Word([1, 2]),'left')])"
p819
sg717
g718
sg719
g774
sg720
((g723
S'left'
p820
tp821
tp822
sbg0
(g708
g2
Ntp823
Rp824
(dp825
g712
S'FURTP-FURRP'
p826
sg714
I-1665685964825726656
sg715
S"Rule('031', 'OBTP-FURTP-FURRP', 'FURTP-FURRP', [(Pos([1, 2, 3]),'O')])"
p827
sg717
g801
sg719
g68
sg720
((g803
g36
tp828
tp829
sbg0
(g708
g2
Ntp830
Rp831
(dp832
g712
S'OBTP-IRMRP'
p833
sg714
I-7306461642627234759
sg715
S"Rule('040', 'OBTP-FURTP', 'OBTP-IRMRP', [(Word([1, 2]),'far')])"
p834
sg717
g718
sg719
g774
sg720
((g723
S'far'
p835
tp836
tp837
sbg0
(g708
g2
Ntp838
Rp839
(dp840
g712
S'OBTP-IRMRP'
p841
sg714
I3277015333397869816
sg715
S"Rule('030', 'OBTP-FURTP-IRMRP', 'OBTP-IRMRP', [(Pos([-3, -2, -1]),'OBTP-IRMRP')])"
p842
sg717
g745
sg719
g38
sg720
((g748
g833
tp843
tp844
sbg0
(g708
g2
Ntp845
Rp846
(dp847
g712
S'OBTP-FURTP'
p848
sg714
I-5428461092305661688
sg715
S"Rule('040', 'OBTP-IRMRP', 'OBTP-FURTP', [(Word([1, 2]),'table')])"
p849
sg717
g718
sg719
g377
sg720
((g723
S'table'
p850
tp851
tp852
sbg0
(g708
g2
Ntp853
Rp854
(dp855
g712
S'FURTP'
p856
sg714
I-2463858593983715078
sg715
S"Rule('024', 'OBTP-FURTP', 'FURTP', [(Pos([-1]),'FURTP-IRMRP')])"
p857
sg717
S'024'
p858
sg719
g66
sg720
((g0
(g746
g2
Ntp859
Rp860
(dp861
g725
(I-1
tp862
sg727
g751
sbg799
tp863
tp864
sbg0
(g708
g2
Ntp865
Rp866
(dp867
g712
g254
sg714
I422557361750382326
sg715
S"Rule('025', 'IRMRP', 'FURTP-IRMRP', [(Pos([1]),'FURTP-IRMRP')])"
p868
sg717
S'025'
p869
sg719
g201
sg720
((g0
(g746
g2
Ntp870
Rp871
(dp872
g725
(I1
tp873
sg727
g751
sbg811
tp874
tp875
sbg0
(g708
g2
Ntp876
Rp877
(dp878
g712
S'OBTP'
p879
sg714
I-308156510291370948
sg715
S"Rule('025', 'IRMRP', 'OBTP', [(Pos([1]),'OBTP')])"
p880
sg717
g869
sg719
g44
sg720
((g871
g42
tp881
tp882
sbg0
(g708
g2
Ntp883
Rp884
(dp885
g712
g856
sg714
I-1524146167031021256
sg715
S"Rule('034', 'FURTP-IRMRP', 'FURTP', [(Pos([1]),'FURTP'), (Pos([2]),'FURTP-IRMRP')])"
p886
sg717
S'034'
p887
sg719
g799
sg720
((g0
(g746
g2
Ntp888
Rp889
(dp890
g725
(I1
tp891
sg727
g751
sbg856
tp892
(g0
(g746
g2
Ntp893
Rp894
(dp895
g725
(I2
tp896
sg727
g751
sbg787
tp897
tp898
sbg0
(g708
g2
Ntp899
Rp900
(dp901
g712
S'FURTP-IRMRP'
p902
sg714
I8323614137706283353
sg715
S"Rule('041', 'FURTP', 'FURTP-IRMRP', [(Word([-1, 0]),'back')])"
p903
sg717
S'041'
p904
sg719
g856
sg720
((g0
(g721
g2
Ntp905
Rp906
(dp907
g725
(I-1
I0
tp908
sg727
g728
sbS'back'
p909
tp910
tp911
sbg0
(g708
g2
Ntp912
Rp913
(dp914
g712
S'OBTP-FURTP-IRMRP'
p915
sg714
I4116102581804185228
sg715
S"Rule('040', 'OBTP-FURTP-FURRP', 'OBTP-FURTP-IRMRP', [(Word([1, 2]),'side')])"
p916
sg717
g718
sg719
g188
sg720
((g723
S'side'
p917
tp918
tp919
sbtp920
sb.