ccopy_reg
_reconstructor
p0
(cnltk.tag.brill
BrillTagger
p1
c__builtin__
object
p2
Ntp3
Rp4
(dp5
S'_initial_tagger'
p6
g0
(cnltk.tag.sequential
NgramTagger
p7
g2
Ntp8
Rp9
(dp10
S'_taggers'
p11
(lp12
g9
ag0
(g7
g2
Ntp13
Rp14
(dp15
g11
(lp16
g14
ag0
(cnltk.tag.sequential
TrigramTagger
p17
g2
Ntp18
Rp19
(dp20
g11
(lp21
g19
ag0
(cnltk.tag.sequential
BigramTagger
p22
g2
Ntp23
Rp24
(dp25
g11
(lp26
g24
ag0
(cnltk.tag.sequential
UnigramTagger
p27
g2
Ntp28
Rp29
(dp30
g11
(lp31
g29
asS'_n'
p32
I1
sS'_context_to_tag'
p33
(dp34
S'and'
p35
S'O'
p36
sS'right'
p37
S'OBTP-FURTP-IRMRP'
p38
sS'be'
p39
S'OBTP'
p40
sS'wall'
p41
S'IRMRP'
p42
sS'laptop'
p43
S'OBTP'
p44
sS'move'
p45
S'IRMRP'
p46
sS'back'
p47
S'FURTP-IRMRP'
p48
sS'walk'
p49
S'IRMRP'
p50
sS'nightstand'
p51
S'OBTP-FURTP'
p52
sS'are'
p53
S'FURTP-IRMRP'
p54
sS'directly'
p55
S'OBTP-IRMRP'
p56
sS'in'
p57
S'IRMRP'
p58
sS'go'
p59
g42
sS'table'
p60
S'OBTP-FURTP'
p61
sS'find'
p62
g44
sS'halfway'
p63
g58
sS'again'
p64
S'IRMRP'
p65
sS'end'
p66
S'OBTP-IRMRP'
p67
sS'monitor'
p68
S'OBTP'
p69
sS'top'
p70
S'OBTP-FURTP'
p71
sS'there'
p72
S'OBTP'
p73
sS'mug'
p74
g73
sS'couch'
p75
S'OBTP-FURTP-FURRP'
p76
sS'to'
p77
S'OBTP-FURTP-IRMRP'
p78
sS'behind'
p79
S'OBTP-FURTP-FURRP'
p80
sS'forward'
p81
g42
sS'you'
p82
g44
sS'was'
p83
S'OBTP'
p84
sS'until'
p85
g50
sS'fork'
p86
g40
sS'then'
p87
g36
sS'll'
p88
S'OBTP'
p89
sS'hit'
p90
g42
sS'bed'
p91
S'OBTP-FURTP-FURRP'
p92
sS'far'
p93
S'OBTP-FURTP-IRMRP'
p94
sS'left'
p95
S'IRMRP'
p96
sS'statue'
p97
S'OBTP'
p98
sS'front'
p99
S'OBTP-FURTP-FURRP'
p100
sS'with'
p101
S'FURTP-FURRP'
p102
sS'by'
p103
S'OBTP-FURTP-FURRP'
p104
sS'is'
p105
g73
sS'case'
p106
S'OBTP'
p107
sS'on'
p108
S'OBTP-FURTP'
p109
sS'about'
p110
g58
sS'your'
p111
S'OBTP-IRMRP'
p112
sS'room'
p113
S'OBTP-IRMRP'
p114
sS'ahead'
p115
S'OBTP-IRMRP'
p116
sS'chairs'
p117
S'OBTP-FURTP-FURRP'
p118
sS'of'
p119
S'OBTP-FURTP-FURRP'
p120
sS'straight'
p121
g50
sS'against'
p122
S'OBTP-FURTP-IRMRP'
p123
sS'will'
p124
g40
sS'turn'
p125
g96
sS'the'
p126
g40
sS'glasses'
p127
g107
sS'side'
p128
S'OBTP-FURTP-IRMRP'
p129
sS'at'
p130
S'FURTP-IRMRP'
p131
ssbasg32
I2
sg33
(dp132
((g50
tp133
g47
tp134
g50
s((S'IRMTP'
p135
tp136
S'forward'
p137
tp138
g135
s((S'OBTP-IRMRP'
p139
tp140
S'the'
p141
tp142
S'OBTP-IRMRP'
p143
s((g71
tp144
g119
tp145
S'OBTP-FURTP'
p146
s((S'FURTP'
p147
tp148
S'table'
p149
tp150
g147
s((S'IRMRP'
p151
tp152
S'go'
p153
tp154
g42
s((S'FURTP-IRMRP'
p155
tp156
S'wall'
p157
tp158
S'FURTP-IRMRP'
p159
s((S'OBTP-IRMRP'
p160
tp161
g93
tp162
S'OBTP-IRMRP'
p163
s((g143
tp164
g37
tp165
S'OBTP-IRMRP'
p166
s((S'FURTP-IRMRP'
p167
tp168
S'you'
p169
tp170
S'FURTP-IRMRP'
p171
s((g50
tp172
g53
tp173
g50
s((g50
tp174
g130
tp175
g50
s((g78
tp176
S'the'
p177
tp178
S'OBTP-FURTP-IRMRP'
p179
s((g40
tp180
g108
tp181
g109
s((S'OBTP-FURTP'
p182
tp183
S'ahead'
p184
tp185
S'OBTP-FURTP-IRMRP'
p186
s((S'IRMRP'
p187
tp188
S'right'
p189
tp190
g187
s((S'FURTP-IRMRP'
p191
tp192
S'straight'
p193
tp194
S'FURTP-IRMRP'
p195
s((S'OBTP-FURTP-IRMRP'
p196
tp197
S'left'
p198
tp199
S'OBTP-FURTP-IRMRP'
p200
s((S'OBTP-FURTP-IRMRP'
p201
tp202
S'in'
p203
tp204
S'OBTP-FURTP-FURRP'
p205
s((S'OBTP-FURTP'
p206
tp207
S'at'
p208
tp209
S'OBTP-FURTP-IRMRP'
p210
s((S'OBTP-IRMRP'
p211
tp212
g128
tp213
S'OBTP-IRMRP'
p214
s((S'OBTP'
p215
tp216
S'in'
p217
tp218
S'OBTP-IRMRP'
p219
s((g50
tp220
g82
tp221
g50
s((tS'go'
p222
tp223
S'IRMRP'
p224
s((S'OBTP-IRMRP'
p225
tp226
S'in'
p227
tp228
S'OBTP-IRMRP'
p229
s((g102
tp230
S'the'
p231
tp232
S'FURTP-FURRP'
p233
s((S'FURTP'
p234
tp235
S'the'
p236
tp237
g234
s((S'OBTP-FURTP-FURRP'
p238
tp239
S'at'
p240
tp241
S'OBTP-FURTP-IRMRP'
p242
s((S'OBTP-IRMRP'
p243
tp244
S'back'
p245
tp246
S'OBTP-IRMRP'
p247
s((g233
tp248
g117
tp249
S'FURTP-FURRP'
p250
s((g112
tp251
S'left'
p252
tp253
S'OBTP-IRMRP'
p254
s((S'OBTP-FURTP-FURRP'
p255
tp256
S'right'
p257
tp258
S'OBTP-FURTP-FURRP'
p259
s((S'OBTP-FURTP-FURRP'
p260
tp261
S'table'
p262
tp263
S'OBTP-FURTP-FURRP'
p264
s((S'OBTP'
p265
tp266
S'of'
p267
tp268
g265
s((S'OBTP'
p269
tp270
S'about'
p271
tp272
S'OBTP-IRMRP'
p273
s((S'OBTP-IRMRP'
p274
tp275
S'wall'
p276
tp277
S'OBTP-IRMRP'
p278
s((g120
tp279
S'the'
p280
tp281
S'OBTP-FURTP-FURRP'
p282
s((S'FURTP'
p283
tp284
S'against'
p285
tp286
S'FURTP-IRMRP'
p287
s((g67
tp288
S'of'
p289
tp290
S'OBTP-IRMRP'
p291
s((g273
tp292
S'halfway'
p293
tp294
g225
s((g131
tp295
S'the'
p296
tp297
S'FURTP-IRMRP'
p298
s((S'OBTP-FURTP-IRMRP'
p299
tp300
S'your'
p301
tp302
g196
s((S'OBTP'
p303
tp304
g122
tp305
S'OBTP-IRMRP'
p306
s((g36
tp307
S'walk'
p308
tp309
S'IRMRP'
p310
s((g265
tp311
S'top'
p312
tp313
g265
s((S'FURTP-IRMRP'
p314
tp315
S'to'
p316
tp317
S'FURTP-IRMRP'
p318
s((S'OBTP-FURTP-IRMRP'
p319
tp320
S'wall'
p321
tp322
S'OBTP-FURTP-IRMRP'
p323
s((S'OBTP-FURTP'
p324
tp325
S'with'
p326
tp327
S'OBTP-FURTP-FURRP'
p328
s((g234
tp329
S'to'
p330
tp331
g234
s((S'FURTP-IRMRP'
p332
tp333
S'forward'
p334
tp335
g314
s((g195
tp336
S'until'
p337
tp338
g167
s((g234
tp339
S'forward'
p340
tp341
g234
s((g50
tp342
S'the'
p343
tp344
g50
s((S'OBTP-FURTP'
p345
tp346
S'in'
p347
tp348
S'OBTP-FURTP-FURRP'
p349
s((tS'walk'
p350
tp351
g50
s((S'OBTP-FURTP'
p352
tp353
S'back'
p354
tp355
S'OBTP-FURTP'
p356
s((S'OBTP-FURTP'
p357
tp358
S'directly'
p359
tp360
S'OBTP-FURTP-IRMRP'
p361
s((S'OBTP'
p362
tp363
S'at'
p364
tp365
S'OBTP-IRMRP'
p366
s((g36
tp367
S'go'
p368
tp369
S'IRMRP'
p370
s((g229
tp371
S'on'
p372
tp373
S'OBTP-FURTP'
p374
s((S'OBTP-FURTP-FURRP'
p375
tp376
S'left'
p377
tp378
S'OBTP-FURTP-FURRP'
p379
s((g116
tp380
g77
tp381
S'OBTP-IRMRP'
p382
s((g109
tp383
S'the'
p384
tp385
S'OBTP-FURTP'
p386
s((S'OBTP-FURTP-IRMRP'
p387
tp388
S'end'
p389
tp390
S'OBTP-FURTP-IRMRP'
p391
s((S'OBTP-FURTP'
p392
tp393
S'to'
p394
tp395
S'OBTP-FURTP-FURRP'
p396
s((g265
tp397
S'the'
p398
tp399
g44
ssbag29
asg32
I3
sg33
(dp400
((g225
g229
tp401
g372
tp402
g374
s((g386
g61
tp403
S'to'
p404
tp405
g396
s((g40
g40
tp406
g108
tp407
g109
s((S'OBTP'
p408
g408
tp409
S'at'
p410
tp411
g366
s((g151
g151
tp412
g153
tp413
g42
s((tg222
tp414
g224
s((tg350
tp415
g50
s((S'IRMRP'
p416
g416
tp417
S'you'
p418
tp419
g50
s((g36
tp420
g368
tp421
g370
s((g36
tp422
g308
tp423
g310
s((g54
g131
tp424
g296
tp425
g147
s((g265
g265
tp426
g398
tp427
g44
ssbag24
ag29
asg32
I4
sg33
(dp428
((g273
g225
g229
tp429
g372
tp430
g374
s((tg222
tp431
g224
s((g408
g408
g408
tp432
g410
tp433
g366
s((tg350
tp434
g50
s((g109
g386
g61
tp435
g404
tp436
g396
s((g416
g416
g416
tp437
g418
tp438
g50
s((g40
g40
g40
tp439
g108
tp440
g109
s((g36
tp441
g368
tp442
g370
s((g265
g265
g265
tp443
g398
tp444
g44
s((g36
tp445
g308
tp446
g310
s((g36
g151
g151
tp447
g153
tp448
S'IRMRP'
p449
ssbag19
ag24
ag29
asg32
I5
sg33
(dp450
((g40
g40
g40
g40
tp451
g108
tp452
g109
s((g36
g36
g151
g151
tp453
g153
tp454
g449
s((g265
g265
g265
g265
tp455
g398
tp456
S'OBTP-FURTP'
p457
s((tg222
tp458
g224
s((g416
g416
g416
g416
tp459
g418
tp460
g42
s((g408
g408
g408
tp461
g410
tp462
g366
s((tg350
tp463
g50
s((g269
g273
g225
g229
tp464
g372
tp465
S'OBTP-IRMRP'
p466
s((g36
tp467
g368
tp468
g370
s((S'OBTP'
p469
g109
g386
g61
tp470
g404
tp471
g78
s((S'OBTP'
p472
g472
g472
tp473
S'on'
p474
tp475
S'OBTP-FURTP'
p476
s((g36
tp477
g308
tp478
g310
ssbsS'_rules'
p479
(g0
(cnltk.tag.brill
ProximateWordsRule
p480
g2
Ntp481
Rp482
(dp483
S'replacement_tag'
p484
S'OBTP-FURTP-FURRP'
p485
sS'original_tag'
p486
g200
sS'_ProximateTokensRule__hash'
p487
I-570462936146620881
sS'_conditions'
p488
((I1
I10
S'bed'
p489
tp490
tp491
sS'_ProximateTokensRule__repr'
p492
S'<ProximateWordsRule: OBTP-FURTP-IRMRP->OBTP-FURTP-FURRP if bed in 1...10>'
p493
sbg0
(cnltk.tag.brill
ProximateTagsRule
p494
g2
Ntp495
Rp496
(dp497
g484
S'FURTP-IRMRP'
p498
sg486
g50
sg487
I-4075609212465338052
sg488
((I1
I10
g48
tp499
tp500
sg492
S'<ProximateTagsRule: IRMRP->FURTP-IRMRP if FURTP-IRMRP in 1...10>'
p501
sbg0
(g494
g2
Ntp502
Rp503
(dp504
g484
S'FURTP-IRMRP'
p505
sg486
g323
sg487
I936096692409794144
sg488
((I1
I10
g36
tp506
tp507
sg492
S'<ProximateTagsRule: OBTP-FURTP-IRMRP->FURTP-IRMRP if O in 1...10>'
p508
sbg0
(g480
g2
Ntp509
Rp510
(dp511
g484
S'OBTP-IRMRP'
p512
sg486
g386
sg487
I-3812953920746234632
sg488
((I1
I2
S'right'
p513
tp514
tp515
sg492
S'<ProximateWordsRule: OBTP-FURTP->OBTP-IRMRP if right in 1...2>'
p516
sbg0
(g494
g2
Ntp517
Rp518
(dp519
g484
S'OBTP-IRMRP'
p520
sg486
g38
sg487
I7272585298306872508
sg488
((I-10
I-1
g512
tp521
tp522
sg492
S'<ProximateTagsRule: OBTP-FURTP-IRMRP->OBTP-IRMRP if OBTP-IRMRP in -10...-1>'
p523
sbg0
(g494
g2
Ntp524
Rp525
(dp526
g484
S'FURTP'
p527
sg486
g505
sg487
I148214585574052316
sg488
((I-1
I-1
g505
tp528
(I1
I1
g61
tp529
tp530
sg492
S'<ProximateTagsRule: FURTP-IRMRP->FURTP if FURTP-IRMRP in -1...-1 and OBTP-FURTP in 1...1>'
p531
sbg0
(g494
g2
Ntp532
Rp533
(dp534
g484
S'FURTP'
p535
sg486
g61
sg487
I-1589396655273437161
sg488
((I-1
I-1
g527
tp536
tp537
sg492
S'<ProximateTagsRule: OBTP-FURTP->FURTP if FURTP in -1...-1>'
p538
sbg0
(g494
g2
Ntp539
Rp540
(dp541
g484
S'FURTP'
p542
sg486
g42
sg487
I2987764716855913635
sg488
((I1
I3
g527
tp543
tp544
sg492
S'<ProximateTagsRule: IRMRP->FURTP if FURTP in 1...3>'
p545
sbg0
(g494
g2
Ntp546
Rp547
(dp548
g484
g265
sg486
g42
sg487
I-5808476677451634217
sg488
((I-1
I-1
g58
tp549
(I1
I1
g40
tp550
tp551
sg492
S'<ProximateTagsRule: IRMRP->OBTP if IRMRP in -1...-1 and OBTP in 1...1>'
p552
sbg0
(g494
g2
Ntp553
Rp554
(dp555
g484
S'OBTP-IRMRP'
p556
sg486
g386
sg487
I5940516345129506623
sg488
((I1
I10
g96
tp557
tp558
sg492
S'<ProximateTagsRule: OBTP-FURTP->OBTP-IRMRP if IRMRP in 1...10>'
p559
sbg0
(g494
g2
Ntp560
Rp561
(dp562
g484
S'FURTP-FURRP'
p563
sg486
g118
sg487
I3496731960190048531
sg488
((I-10
I-1
g527
tp564
tp565
sg492
S'<ProximateTagsRule: OBTP-FURTP-FURRP->FURTP-FURRP if FURTP in -10...-1>'
p566
sbg0
(g480
g2
Ntp567
Rp568
(dp569
g484
S'OBTP-FURTP-FURRP'
p570
sg486
g200
sg487
I-5060317316625951622
sg488
((I1
I10
S'table'
p571
tp572
tp573
sg492
S'<ProximateWordsRule: OBTP-FURTP-IRMRP->OBTP-FURTP-FURRP if table in 1...10>'
p574
sbg0
(g494
g2
Ntp575
Rp576
(dp577
g484
S'OBTP-IRMRP'
p578
sg486
g96
sg487
I-2517314132827945372
sg488
((I-10
I-1
g40
tp579
tp580
sg492
S'<ProximateTagsRule: IRMRP->OBTP-IRMRP if OBTP in -10...-1>'
p581
sbg0
(g480
g2
Ntp582
Rp583
(dp584
g484
S'OBTP-FURTP'
p585
sg486
g247
sg487
I8234553531347330536
sg488
((I1
I2
S'table'
p586
tp587
tp588
sg492
S'<ProximateWordsRule: OBTP-IRMRP->OBTP-FURTP if table in 1...2>'
p589
sbtp590
sb.